
target/deploy/janus_conditional_tokens.so:	file format elf64-sbf

Disassembly of section .text:

0000000000000120 <.text>:
     120: 57 02 00 00 ff 00 00 00      	and64 r2, 0xff
     128: 25 02 09 00 07 00 00 00      	jgt r2, 0x7, +0x9 <.text+0x58>
     130: b7 03 00 00 01 00 00 00      	mov64 r3, 0x1
     138: 6f 23 00 00 00 00 00 00      	lsh64 r3, r2
     140: bf 34 00 00 00 00 00 00      	mov64 r4, r3
     148: 57 04 00 00 ff 00 00 00      	and64 r4, 0xff
     150: 71 12 00 00 00 00 00 00      	ldxb r2, [r1 + 0x0]
     158: ad 42 06 00 00 00 00 00      	jlt r2, r4, +0x6 <.text+0x70>
     160: 1f 32 00 00 00 00 00 00      	sub64 r2, r3
     168: 73 21 00 00 00 00 00 00      	stxb [r1 + 0x0], r2
     170: 95 00 00 00 00 00 00 00      	exit
     178: 18 01 00 00 f8 67 00 00 00 00 00 00 00 00 00 00      	lddw r1, 0x67f8
     188: 85 10 00 00 95 0c 00 00      	call 0xc95
     190: 18 01 00 00 10 68 00 00 00 00 00 00 00 00 00 00      	lddw r1, 0x6810
     1a0: 85 10 00 00 87 0c 00 00      	call 0xc87
     1a8: bf 16 00 00 00 00 00 00      	mov64 r6, r1
     1b0: bf a1 00 00 00 00 00 00      	mov64 r1, r10
     1b8: 07 01 00 00 c0 f7 ff ff      	add64 r1, -0x840
     1c0: bf a3 00 00 00 00 00 00      	mov64 r3, r10
     1c8: 07 03 00 00 c0 fb ff ff      	add64 r3, -0x440
     1d0: b7 02 00 00 00 04 00 00      	mov64 r2, 0x400
     1d8: 85 10 00 00 ff ff ff ff      	call -0x1
     1e0: bf 07 00 00 00 00 00 00      	mov64 r7, r0
     1e8: b7 01 00 00 00 00 00 00      	mov64 r1, 0x0
     1f0: 15 07 18 00 00 00 00 00      	jeq r7, 0x0, +0x18 <.text+0x198>
     1f8: 79 a1 d8 fb 00 00 00 00      	ldxdw r1, [r10 - 0x428]
     200: 7b 1a f8 ff 00 00 00 00      	stxdw [r10 - 0x8], r1
     208: 79 a1 d0 fb 00 00 00 00      	ldxdw r1, [r10 - 0x430]
     210: 7b 1a f0 ff 00 00 00 00      	stxdw [r10 - 0x10], r1
     218: 79 a1 c8 fb 00 00 00 00      	ldxdw r1, [r10 - 0x438]
     220: 7b 1a e8 ff 00 00 00 00      	stxdw [r10 - 0x18], r1
     228: 79 a1 c0 fb 00 00 00 00      	ldxdw r1, [r10 - 0x440]
     230: 7b 1a e0 ff 00 00 00 00      	stxdw [r10 - 0x20], r1
     238: bf a8 00 00 00 00 00 00      	mov64 r8, r10
     240: 07 08 00 00 e0 fb ff ff      	add64 r8, -0x420
     248: bf a2 00 00 00 00 00 00      	mov64 r2, r10
     250: 07 02 00 00 c0 f7 ff ff      	add64 r2, -0x840
     258: bf 81 00 00 00 00 00 00      	mov64 r1, r8
     260: b7 03 00 00 00 04 00 00      	mov64 r3, 0x400
     268: 85 10 00 00 84 0c 00 00      	call 0xc84
     270: bf 61 00 00 00 00 00 00      	mov64 r1, r6
     278: 07 01 00 00 08 00 00 00      	add64 r1, 0x8
     280: bf 82 00 00 00 00 00 00      	mov64 r2, r8
     288: b7 03 00 00 20 04 00 00      	mov64 r3, 0x420
     290: 85 10 00 00 7f 0c 00 00      	call 0xc7f
     298: a5 07 01 00 00 04 00 00      	jlt r7, 0x400, +0x1 <.text+0x188>
     2a0: b7 07 00 00 00 04 00 00      	mov64 r7, 0x400
     2a8: 7b 76 28 04 00 00 00 00      	stxdw [r6 + 0x428], r7
     2b0: b7 01 00 00 01 00 00 00      	mov64 r1, 0x1
     2b8: 7b 16 00 00 00 00 00 00      	stxdw [r6 + 0x0], r1
     2c0: 95 00 00 00 00 00 00 00      	exit
     2c8: bf 24 00 00 00 00 00 00      	mov64 r4, r2
     2d0: b7 00 00 00 0a 00 00 00      	mov64 r0, 0xa
     2d8: 79 12 20 00 00 00 00 00      	ldxdw r2, [r1 + 0x20]
     2e0: ad 32 5d 00 00 00 00 00      	jlt r2, r3, +0x5d <.text+0x4b0>
     2e8: 7b 2a b0 f1 00 00 00 00      	stxdw [r10 - 0xe50], r2
     2f0: 7b 1a a8 f1 00 00 00 00      	stxdw [r10 - 0xe58], r1
     2f8: 79 11 18 00 00 00 00 00      	ldxdw r1, [r1 + 0x18]
     300: 7b 1a b8 f1 00 00 00 00      	stxdw [r10 - 0xe48], r1
     308: 15 03 45 00 00 00 00 00      	jeq r3, 0x0, +0x45 <.text+0x418>
     310: b7 00 00 00 00 00 00 00      	mov64 r0, 0x0
     318: bf a6 00 00 00 00 00 00      	mov64 r6, r10
     320: 07 06 00 00 0a f2 ff ff      	add64 r6, -0xdf6
     328: 79 a8 b8 f1 00 00 00 00      	ldxdw r8, [r10 - 0xe48]
     330: 07 08 00 00 08 00 00 00      	add64 r8, 0x8
     338: 7b 3a c0 f1 00 00 00 00      	stxdw [r10 - 0xe40], r3
     340: 05 00 17 00 00 00 00 00      	ja +0x17 <.text+0x2e0>
     348: 07 00 00 00 01 00 00 00      	add64 r0, 0x1
     350: 79 94 50 00 00 00 00 00      	ldxdw r4, [r9 + 0x50]
     358: bf 95 00 00 00 00 00 00      	mov64 r5, r9
     360: 07 05 00 00 28 00 00 00      	add64 r5, 0x28
     368: 7b 56 ee ff 00 00 00 00      	stxdw [r6 - 0x12], r5
     370: bf 95 00 00 00 00 00 00      	mov64 r5, r9
     378: 07 05 00 00 58 00 00 00      	add64 r5, 0x58
     380: 7b 56 e6 ff 00 00 00 00      	stxdw [r6 - 0x1a], r5
     388: 7b 46 de ff 00 00 00 00      	stxdw [r6 - 0x22], r4
     390: 07 09 00 00 48 00 00 00      	add64 r9, 0x48
     398: 7b 96 d6 ff 00 00 00 00      	stxdw [r6 - 0x2a], r9
     3a0: 7b 76 ce ff 00 00 00 00      	stxdw [r6 - 0x32], r7
     3a8: 73 26 00 00 00 00 00 00      	stxb [r6 + 0x0], r2
     3b0: 73 36 ff ff 00 00 00 00      	stxb [r6 - 0x1], r3
     3b8: 73 16 fe ff 00 00 00 00      	stxb [r6 - 0x2], r1
     3c0: 7a 06 f6 ff 00 00 00 00      	stdw [r6 - 0xa], 0x0
     3c8: 07 06 00 00 38 00 00 00      	add64 r6, 0x38
     3d0: 79 a4 d0 f1 00 00 00 00      	ldxdw r4, [r10 - 0xe30]
     3d8: 07 04 00 00 08 00 00 00      	add64 r4, 0x8
     3e0: 07 08 00 00 10 00 00 00      	add64 r8, 0x10
     3e8: 79 a3 c0 f1 00 00 00 00      	ldxdw r3, [r10 - 0xe40]
     3f0: ad 30 01 00 00 00 00 00      	jlt r0, r3, +0x1 <.text+0x2e0>
     3f8: 05 00 27 00 00 00 00 00      	ja +0x27 <.text+0x418>
     400: 7b 0a c8 f1 00 00 00 00      	stxdw [r10 - 0xe38], r0
     408: 79 82 f8 ff 00 00 00 00      	ldxdw r2, [r8 - 0x8]
     410: 7b 4a d0 f1 00 00 00 00      	stxdw [r10 - 0xe30], r4
     418: 79 41 00 00 00 00 00 00      	ldxdw r1, [r4 + 0x0]
     420: 79 19 00 00 00 00 00 00      	ldxdw r9, [r1 + 0x0]
     428: bf 97 00 00 00 00 00 00      	mov64 r7, r9
     430: 07 07 00 00 08 00 00 00      	add64 r7, 0x8
     438: bf 71 00 00 00 00 00 00      	mov64 r1, r7
     440: b7 03 00 00 20 00 00 00      	mov64 r3, 0x20
     448: 85 10 00 00 4c 0c 00 00      	call 0xc4c
     450: bf 01 00 00 00 00 00 00      	mov64 r1, r0
     458: b7 00 00 00 01 00 00 00      	mov64 r0, 0x1
     460: 67 01 00 00 20 00 00 00      	lsh64 r1, 0x20
     468: 77 01 00 00 20 00 00 00      	rsh64 r1, 0x20
     470: 15 01 01 00 00 00 00 00      	jeq r1, 0x0, +0x1 <.text+0x360>
     478: 05 00 2a 00 00 00 00 00      	ja +0x2a <.text+0x4b0>
     480: 71 82 00 00 00 00 00 00      	ldxb r2, [r8 + 0x0]
     488: b7 01 00 00 ff ff ff ff      	mov64 r1, -0x1
     490: 55 02 01 00 00 00 00 00      	jne r2, 0x0, +0x1 <.text+0x380>
     498: b7 01 00 00 88 ff ff ff      	mov64 r1, -0x78
     4a0: 71 92 00 00 00 00 00 00      	ldxb r2, [r9 + 0x0]
     4a8: 5f 21 00 00 00 00 00 00      	and64 r1, r2
     4b0: b7 00 00 00 0b 00 00 00      	mov64 r0, 0xb
     4b8: 57 01 00 00 ff 00 00 00      	and64 r1, 0xff
     4c0: 55 01 21 00 00 00 00 00      	jne r1, 0x0, +0x21 <.text+0x4b0>
     4c8: 71 93 01 00 00 00 00 00      	ldxb r3, [r9 + 0x1]
     4d0: b7 02 00 00 01 00 00 00      	mov64 r2, 0x1
     4d8: b7 01 00 00 01 00 00 00      	mov64 r1, 0x1
     4e0: 55 03 01 00 00 00 00 00      	jne r3, 0x0, +0x1 <.text+0x3d0>
     4e8: b7 01 00 00 00 00 00 00      	mov64 r1, 0x0
     4f0: 71 94 02 00 00 00 00 00      	ldxb r4, [r9 + 0x2]
     4f8: b7 03 00 00 01 00 00 00      	mov64 r3, 0x1
     500: 79 a0 c8 f1 00 00 00 00      	ldxdw r0, [r10 - 0xe38]
     508: 55 04 01 00 00 00 00 00      	jne r4, 0x0, +0x1 <.text+0x3f8>
     510: b7 03 00 00 00 00 00 00      	mov64 r3, 0x0
     518: 71 94 03 00 00 00 00 00      	ldxb r4, [r9 + 0x3]
     520: 55 04 c4 ff 00 00 00 00      	jne r4, 0x0, -0x3c <.text+0x228>
     528: b7 02 00 00 00 00 00 00      	mov64 r2, 0x0
     530: 05 00 c2 ff 00 00 00 00      	ja -0x3e <.text+0x228>
     538: 79 a4 a8 f1 00 00 00 00      	ldxdw r4, [r10 - 0xe58]
     540: 79 41 00 00 00 00 00 00      	ldxdw r1, [r4 + 0x0]
     548: 79 42 08 00 00 00 00 00      	ldxdw r2, [r4 + 0x8]
     550: 79 44 10 00 00 00 00 00      	ldxdw r4, [r4 + 0x10]
     558: 7b 4a f8 ff 00 00 00 00      	stxdw [r10 - 0x8], r4
     560: 7b 2a f0 ff 00 00 00 00      	stxdw [r10 - 0x10], r2
     568: 79 a2 b0 f1 00 00 00 00      	ldxdw r2, [r10 - 0xe50]
     570: 7b 2a e8 ff 00 00 00 00      	stxdw [r10 - 0x18], r2
     578: 79 a2 b8 f1 00 00 00 00      	ldxdw r2, [r10 - 0xe48]
     580: 7b 2a e0 ff 00 00 00 00      	stxdw [r10 - 0x20], r2
     588: 7b 1a d8 ff 00 00 00 00      	stxdw [r10 - 0x28], r1
     590: bf a1 00 00 00 00 00 00      	mov64 r1, r10
     598: 07 01 00 00 d8 ff ff ff      	add64 r1, -0x28
     5a0: bf a2 00 00 00 00 00 00      	mov64 r2, r10
     5a8: 07 02 00 00 d8 f1 ff ff      	add64 r2, -0xe28
     5b0: b7 04 00 00 08 00 00 00      	mov64 r4, 0x8
     5b8: b7 05 00 00 00 00 00 00      	mov64 r5, 0x0
     5c0: 85 10 00 00 ff ff ff ff      	call -0x1
     5c8: b7 00 00 00 1a 00 00 00      	mov64 r0, 0x1a
     5d0: 95 00 00 00 00 00 00 00      	exit
     5d8: bf 16 00 00 00 00 00 00      	mov64 r6, r1
     5e0: bf a4 00 00 00 00 00 00      	mov64 r4, r10
     5e8: 07 04 00 00 e0 ff ff ff      	add64 r4, -0x20
     5f0: bf 21 00 00 00 00 00 00      	mov64 r1, r2
     5f8: bf 32 00 00 00 00 00 00      	mov64 r2, r3
     600: 18 03 00 00 1e 67 00 00 00 00 00 00 00 00 00 00      	lddw r3, 0x671e
     610: 85 10 00 00 ff ff ff ff      	call -0x1
     618: 55 00 0a 00 00 00 00 00      	jne r0, 0x0, +0xa <.text+0x550>
     620: 79 a1 f8 ff 00 00 00 00      	ldxdw r1, [r10 - 0x8]
     628: 7b 16 19 00 00 00 00 00      	stxdw [r6 + 0x19], r1
     630: 79 a1 f0 ff 00 00 00 00      	ldxdw r1, [r10 - 0x10]
     638: 7b 16 11 00 00 00 00 00      	stxdw [r6 + 0x11], r1
     640: 79 a1 e8 ff 00 00 00 00      	ldxdw r1, [r10 - 0x18]
     648: 7b 16 09 00 00 00 00 00      	stxdw [r6 + 0x9], r1
     650: 79 a1 e0 ff 00 00 00 00      	ldxdw r1, [r10 - 0x20]
     658: 7b 16 01 00 00 00 00 00      	stxdw [r6 + 0x1], r1
     660: b7 01 00 00 00 00 00 00      	mov64 r1, 0x0
     668: 05 00 6c 00 00 00 00 00      	ja +0x6c <.text+0x8b0>
     670: 18 01 00 00 00 00 00 00 00 00 00 00 ff ff ff ff      	lddw r1, -0x100000000
     680: bf 02 00 00 00 00 00 00      	mov64 r2, r0
     688: 0f 12 00 00 00 00 00 00      	add64 r2, r1
     690: bf 21 00 00 00 00 00 00      	mov64 r1, r2
     698: 77 01 00 00 20 00 00 00      	rsh64 r1, 0x20
     6a0: 67 02 00 00 20 00 00 00      	lsh64 r2, 0x20
     6a8: 4f 12 00 00 00 00 00 00      	or64 r2, r1
     6b0: b7 01 00 00 00 00 00 00      	mov64 r1, 0x0
     6b8: 65 02 09 00 0c 00 00 00      	jsgt r2, 0xc, +0x9 <.text+0x5e8>
     6c0: 65 02 10 00 05 00 00 00      	jsgt r2, 0x5, +0x10 <.text+0x628>
     6c8: 65 02 29 00 02 00 00 00      	jsgt r2, 0x2, +0x29 <.text+0x6f8>
     6d0: b7 03 00 00 00 00 00 00      	mov64 r3, 0x0
     6d8: 15 02 5b 00 00 00 00 00      	jeq r2, 0x0, +0x5b <.text+0x898>
     6e0: 15 02 53 00 01 00 00 00      	jeq r2, 0x1, +0x53 <.text+0x860>
     6e8: 15 02 01 00 02 00 00 00      	jeq r2, 0x2, +0x1 <.text+0x5d8>
     6f0: 05 00 37 00 00 00 00 00      	ja +0x37 <.text+0x790>
     6f8: b7 01 00 00 02 00 00 00      	mov64 r1, 0x2
     700: 05 00 56 00 00 00 00 00      	ja +0x56 <.text+0x898>
     708: 65 02 0e 00 12 00 00 00      	jsgt r2, 0x12, +0xe <.text+0x660>
     710: 65 02 26 00 0f 00 00 00      	jsgt r2, 0xf, +0x26 <.text+0x728>
     718: 15 02 42 00 0d 00 00 00      	jeq r2, 0xd, +0x42 <.text+0x810>
     720: 15 02 4d 00 0e 00 00 00      	jeq r2, 0xe, +0x4d <.text+0x870>
     728: 15 02 01 00 0f 00 00 00      	jeq r2, 0xf, +0x1 <.text+0x618>
     730: 05 00 2f 00 00 00 00 00      	ja +0x2f <.text+0x790>
     738: b7 01 00 00 0f 00 00 00      	mov64 r1, 0xf
     740: 05 00 4e 00 00 00 00 00      	ja +0x4e <.text+0x898>
     748: 65 02 0d 00 08 00 00 00      	jsgt r2, 0x8, +0xd <.text+0x698>
     750: 15 02 37 00 06 00 00 00      	jeq r2, 0x6, +0x37 <.text+0x7f0>
     758: 15 02 40 00 07 00 00 00      	jeq r2, 0x7, +0x40 <.text+0x840>
     760: 15 02 01 00 08 00 00 00      	jeq r2, 0x8, +0x1 <.text+0x650>
     768: 05 00 28 00 00 00 00 00      	ja +0x28 <.text+0x790>
     770: b7 01 00 00 08 00 00 00      	mov64 r1, 0x8
     778: 05 00 47 00 00 00 00 00      	ja +0x47 <.text+0x898>
     780: 65 02 0c 00 15 00 00 00      	jsgt r2, 0x15, +0xc <.text+0x6c8>
     788: 15 02 32 00 13 00 00 00      	jeq r2, 0x13, +0x32 <.text+0x800>
     790: 15 02 3b 00 14 00 00 00      	jeq r2, 0x14, +0x3b <.text+0x850>
     798: 15 02 01 00 15 00 00 00      	jeq r2, 0x15, +0x1 <.text+0x688>
     7a0: 05 00 21 00 00 00 00 00      	ja +0x21 <.text+0x790>
     7a8: b7 01 00 00 15 00 00 00      	mov64 r1, 0x15
     7b0: 05 00 40 00 00 00 00 00      	ja +0x40 <.text+0x898>
     7b8: 65 02 17 00 0a 00 00 00      	jsgt r2, 0xa, +0x17 <.text+0x758>
     7c0: 15 02 1f 00 09 00 00 00      	jeq r2, 0x9, +0x1f <.text+0x7a0>
     7c8: 15 02 01 00 0a 00 00 00      	jeq r2, 0xa, +0x1 <.text+0x6b8>
     7d0: 05 00 1b 00 00 00 00 00      	ja +0x1b <.text+0x790>
     7d8: b7 01 00 00 0a 00 00 00      	mov64 r1, 0xa
     7e0: 05 00 3a 00 00 00 00 00      	ja +0x3a <.text+0x898>
     7e8: 65 02 16 00 17 00 00 00      	jsgt r2, 0x17, +0x16 <.text+0x780>
     7f0: 15 02 1b 00 16 00 00 00      	jeq r2, 0x16, +0x1b <.text+0x7b0>
     7f8: 15 02 01 00 17 00 00 00      	jeq r2, 0x17, +0x1 <.text+0x6e8>
     800: 05 00 15 00 00 00 00 00      	ja +0x15 <.text+0x790>
     808: b7 01 00 00 17 00 00 00      	mov64 r1, 0x17
     810: 05 00 34 00 00 00 00 00      	ja +0x34 <.text+0x898>
     818: 15 02 24 00 03 00 00 00      	jeq r2, 0x3, +0x24 <.text+0x820>
     820: 15 02 2f 00 04 00 00 00      	jeq r2, 0x4, +0x2f <.text+0x880>
     828: 15 02 01 00 05 00 00 00      	jeq r2, 0x5, +0x1 <.text+0x718>
     830: 05 00 0f 00 00 00 00 00      	ja +0xf <.text+0x790>
     838: b7 01 00 00 05 00 00 00      	mov64 r1, 0x5
     840: 05 00 2e 00 00 00 00 00      	ja +0x2e <.text+0x898>
     848: 15 02 20 00 10 00 00 00      	jeq r2, 0x10, +0x20 <.text+0x830>
     850: 15 02 2b 00 11 00 00 00      	jeq r2, 0x11, +0x2b <.text+0x890>
     858: 15 02 01 00 12 00 00 00      	jeq r2, 0x12, +0x1 <.text+0x748>
     860: 05 00 09 00 00 00 00 00      	ja +0x9 <.text+0x790>
     868: b7 01 00 00 12 00 00 00      	mov64 r1, 0x12
     870: 05 00 28 00 00 00 00 00      	ja +0x28 <.text+0x898>
     878: 15 02 0c 00 0b 00 00 00      	jeq r2, 0xb, +0xc <.text+0x7c0>
     880: 15 02 01 00 0c 00 00 00      	jeq r2, 0xc, +0x1 <.text+0x770>
     888: 05 00 04 00 00 00 00 00      	ja +0x4 <.text+0x790>
     890: b7 01 00 00 0c 00 00 00      	mov64 r1, 0xc
     898: 05 00 23 00 00 00 00 00      	ja +0x23 <.text+0x898>
     8a0: 15 02 09 00 18 00 00 00      	jeq r2, 0x18, +0x9 <.text+0x7d0>
     8a8: 15 02 0a 00 19 00 00 00      	jeq r2, 0x19, +0xa <.text+0x7e0>
     8b0: bf 03 00 00 00 00 00 00      	mov64 r3, r0
     8b8: 05 00 1f 00 00 00 00 00      	ja +0x1f <.text+0x898>
     8c0: b7 01 00 00 09 00 00 00      	mov64 r1, 0x9
     8c8: 05 00 1d 00 00 00 00 00      	ja +0x1d <.text+0x898>
     8d0: b7 01 00 00 16 00 00 00      	mov64 r1, 0x16
     8d8: 05 00 1b 00 00 00 00 00      	ja +0x1b <.text+0x898>
     8e0: b7 01 00 00 0b 00 00 00      	mov64 r1, 0xb
     8e8: 05 00 19 00 00 00 00 00      	ja +0x19 <.text+0x898>
     8f0: b7 01 00 00 18 00 00 00      	mov64 r1, 0x18
     8f8: 05 00 17 00 00 00 00 00      	ja +0x17 <.text+0x898>
     900: b7 01 00 00 19 00 00 00      	mov64 r1, 0x19
     908: 05 00 15 00 00 00 00 00      	ja +0x15 <.text+0x898>
     910: b7 01 00 00 06 00 00 00      	mov64 r1, 0x6
     918: 05 00 13 00 00 00 00 00      	ja +0x13 <.text+0x898>
     920: b7 01 00 00 13 00 00 00      	mov64 r1, 0x13
     928: 05 00 11 00 00 00 00 00      	ja +0x11 <.text+0x898>
     930: b7 01 00 00 0d 00 00 00      	mov64 r1, 0xd
     938: 05 00 0f 00 00 00 00 00      	ja +0xf <.text+0x898>
     940: b7 01 00 00 03 00 00 00      	mov64 r1, 0x3
     948: 05 00 0d 00 00 00 00 00      	ja +0xd <.text+0x898>
     950: b7 01 00 00 10 00 00 00      	mov64 r1, 0x10
     958: 05 00 0b 00 00 00 00 00      	ja +0xb <.text+0x898>
     960: b7 01 00 00 07 00 00 00      	mov64 r1, 0x7
     968: 05 00 09 00 00 00 00 00      	ja +0x9 <.text+0x898>
     970: b7 01 00 00 14 00 00 00      	mov64 r1, 0x14
     978: 05 00 07 00 00 00 00 00      	ja +0x7 <.text+0x898>
     980: b7 01 00 00 01 00 00 00      	mov64 r1, 0x1
     988: 05 00 05 00 00 00 00 00      	ja +0x5 <.text+0x898>
     990: b7 01 00 00 0e 00 00 00      	mov64 r1, 0xe
     998: 05 00 03 00 00 00 00 00      	ja +0x3 <.text+0x898>
     9a0: b7 01 00 00 04 00 00 00      	mov64 r1, 0x4
     9a8: 05 00 01 00 00 00 00 00      	ja +0x1 <.text+0x898>
     9b0: b7 01 00 00 11 00 00 00      	mov64 r1, 0x11
     9b8: 63 36 08 00 00 00 00 00      	stxw [r6 + 0x8], r3
     9c0: 63 16 04 00 00 00 00 00      	stxw [r6 + 0x4], r1
     9c8: b7 01 00 00 01 00 00 00      	mov64 r1, 0x1
     9d0: 73 16 00 00 00 00 00 00      	stxb [r6 + 0x0], r1
     9d8: 95 00 00 00 00 00 00 00      	exit
     9e0: b7 06 00 00 00 00 00 00      	mov64 r6, 0x0
     9e8: b7 08 00 00 00 00 00 00      	mov64 r8, 0x0
     9f0: 55 05 22 02 10 00 00 00      	jne r5, 0x10, +0x222 <.text+0x19e8>
     9f8: b7 08 00 00 0a 00 00 00      	mov64 r8, 0xa
     a00: 55 03 20 02 0b 00 00 00      	jne r3, 0xb, +0x220 <.text+0x19e8>
     a08: b7 08 00 00 07 00 00 00      	mov64 r8, 0x7
     a10: 79 23 00 00 00 00 00 00      	ldxdw r3, [r2 + 0x0]
     a18: 71 33 01 00 00 00 00 00      	ldxb r3, [r3 + 0x1]
     a20: 15 03 1c 02 00 00 00 00      	jeq r3, 0x0, +0x21c <.text+0x19e8>
     a28: 79 20 40 00 00 00 00 00      	ldxdw r0, [r2 + 0x40]
     a30: 71 03 01 00 00 00 00 00      	ldxb r3, [r0 + 0x1]
     a38: 15 03 19 02 00 00 00 00      	jeq r3, 0x0, +0x219 <.text+0x19e8>
     a40: bf 29 00 00 00 00 00 00      	mov64 r9, r2
     a48: 07 09 00 00 08 00 00 00      	add64 r9, 0x8
     a50: b7 06 00 00 02 00 00 00      	mov64 r6, 0x2
     a58: 79 95 00 00 00 00 00 00      	ldxdw r5, [r9 + 0x0]
     a60: 79 53 50 00 00 00 00 00      	ldxdw r3, [r5 + 0x50]
     a68: b7 08 00 00 00 00 00 00      	mov64 r8, 0x0
     a70: 55 03 12 02 00 00 00 00      	jne r3, 0x0, +0x212 <.text+0x19e8>
     a78: 7b 0a 20 fd 00 00 00 00      	stxdw [r10 - 0x2e0], r0
     a80: 7b 5a 28 fd 00 00 00 00      	stxdw [r10 - 0x2d8], r5
     a88: 7b 2a 30 fd 00 00 00 00      	stxdw [r10 - 0x2d0], r2
     a90: 7b 1a 38 fd 00 00 00 00      	stxdw [r10 - 0x2c8], r1
     a98: 79 47 00 00 00 00 00 00      	ldxdw r7, [r4 + 0x0]
     aa0: 7b 7a 78 fd 00 00 00 00      	stxdw [r10 - 0x288], r7
     aa8: 71 41 08 00 00 00 00 00      	ldxb r1, [r4 + 0x8]
     ab0: 7b 1a 18 fd 00 00 00 00      	stxdw [r10 - 0x2e8], r1
     ab8: 73 1a 84 fd 00 00 00 00      	stxb [r10 - 0x27c], r1
     ac0: 71 41 09 00 00 00 00 00      	ldxb r1, [r4 + 0x9]
     ac8: 73 1a 85 fd 00 00 00 00      	stxb [r10 - 0x27b], r1
     ad0: 71 41 0a 00 00 00 00 00      	ldxb r1, [r4 + 0xa]
     ad8: 73 1a 86 fd 00 00 00 00      	stxb [r10 - 0x27a], r1
     ae0: 71 41 0b 00 00 00 00 00      	ldxb r1, [r4 + 0xb]
     ae8: 73 1a 87 fd 00 00 00 00      	stxb [r10 - 0x279], r1
     af0: bf a1 00 00 00 00 00 00      	mov64 r1, r10
     af8: 07 01 00 00 e8 fe ff ff      	add64 r1, -0x118
     b00: 85 10 00 00 2e 0b 00 00      	call 0xb2e
     b08: 61 a6 f0 fe 00 00 00 00      	ldxw r6, [r10 - 0x110]
     b10: 61 a8 ec fe 00 00 00 00      	ldxw r8, [r10 - 0x114]
     b18: 61 a1 e8 fe 00 00 00 00      	ldxw r1, [r10 - 0x118]
     b20: 55 01 fb 01 00 00 00 00      	jne r1, 0x0, +0x1fb <.text+0x19e0>
     b28: 79 a1 f0 fe 00 00 00 00      	ldxdw r1, [r10 - 0x110]
     b30: b7 08 00 00 00 00 00 00      	mov64 r8, 0x0
     b38: b7 06 00 00 0c 00 00 00      	mov64 r6, 0xc
     b40: bd 17 f7 01 00 00 00 00      	jle r7, r1, +0x1f7 <.text+0x19e0>
     b48: 7b 1a 08 fd 00 00 00 00      	stxdw [r10 - 0x2f8], r1
     b50: 7b 7a 10 fd 00 00 00 00      	stxdw [r10 - 0x2f0], r7
     b58: 79 a1 30 fd 00 00 00 00      	ldxdw r1, [r10 - 0x2d0]
     b60: 79 16 10 00 00 00 00 00      	ldxdw r6, [r1 + 0x10]
     b68: 79 17 38 00 00 00 00 00      	ldxdw r7, [r1 + 0x38]
     b70: bf a1 00 00 00 00 00 00      	mov64 r1, r10
     b78: 07 01 00 00 84 fd ff ff      	add64 r1, -0x27c
     b80: 7b 1a c8 fd 00 00 00 00      	stxdw [r10 - 0x238], r1
     b88: bf a1 00 00 00 00 00 00      	mov64 r1, r10
     b90: 07 01 00 00 78 fd ff ff      	add64 r1, -0x288
     b98: 7b 1a b8 fd 00 00 00 00      	stxdw [r10 - 0x248], r1
     ba0: 18 01 00 00 18 67 00 00 00 00 00 00 00 00 00 00      	lddw r1, 0x6718
     bb0: 7b 1a 88 fd 00 00 00 00      	stxdw [r10 - 0x278], r1
     bb8: 07 07 00 00 08 00 00 00      	add64 r7, 0x8
     bc0: 7b 7a a8 fd 00 00 00 00      	stxdw [r10 - 0x258], r7
     bc8: 07 06 00 00 08 00 00 00      	add64 r6, 0x8
     bd0: 7b 6a 98 fd 00 00 00 00      	stxdw [r10 - 0x268], r6
     bd8: 7a 0a d0 fd 01 00 00 00      	stdw [r10 - 0x230], 0x1
     be0: 7a 0a c0 fd 08 00 00 00      	stdw [r10 - 0x240], 0x8
     be8: 7a 0a b0 fd 20 00 00 00      	stdw [r10 - 0x250], 0x20
     bf0: 7a 0a a0 fd 20 00 00 00      	stdw [r10 - 0x260], 0x20
     bf8: 7a 0a 90 fd 06 00 00 00      	stdw [r10 - 0x270], 0x6
     c00: bf a1 00 00 00 00 00 00      	mov64 r1, r10
     c08: 07 01 00 00 e8 fe ff ff      	add64 r1, -0x118
     c10: bf a2 00 00 00 00 00 00      	mov64 r2, r10
     c18: 07 02 00 00 88 fd ff ff      	add64 r2, -0x278
     c20: b7 03 00 00 05 00 00 00      	mov64 r3, 0x5
     c28: 85 10 00 00 35 ff ff ff      	call -0xcb
     c30: 71 a1 e8 fe 00 00 00 00      	ldxb r1, [r10 - 0x118]
     c38: 55 01 d7 01 00 00 00 00      	jne r1, 0x0, +0x1d7 <.text+0x19d8>
     c40: 7b 7a f8 fc 00 00 00 00      	stxdw [r10 - 0x308], r7
     c48: 7b 6a 00 fd 00 00 00 00      	stxdw [r10 - 0x300], r6
     c50: 71 a1 eb fe 00 00 00 00      	ldxb r1, [r10 - 0x115]
     c58: 73 1a da fd 00 00 00 00      	stxb [r10 - 0x226], r1
     c60: 69 a1 e9 fe 00 00 00 00      	ldxh r1, [r10 - 0x117]
     c68: 6b 1a d8 fd 00 00 00 00      	stxh [r10 - 0x228], r1
     c70: 71 a1 08 ff 00 00 00 00      	ldxb r1, [r10 - 0xf8]
     c78: 73 1a 80 ff 00 00 00 00      	stxb [r10 - 0x80], r1
     c80: 73 1a f7 fd 00 00 00 00      	stxb [r10 - 0x209], r1
     c88: 79 a1 00 ff 00 00 00 00      	ldxdw r1, [r10 - 0x100]
     c90: 7b 1a 78 ff 00 00 00 00      	stxdw [r10 - 0x88], r1
     c98: 7b 1a ef fd 00 00 00 00      	stxdw [r10 - 0x211], r1
     ca0: 79 a1 f8 fe 00 00 00 00      	ldxdw r1, [r10 - 0x108]
     ca8: 7b 1a 70 ff 00 00 00 00      	stxdw [r10 - 0x90], r1
     cb0: 7b 1a e7 fd 00 00 00 00      	stxdw [r10 - 0x219], r1
     cb8: 79 a1 f0 fe 00 00 00 00      	ldxdw r1, [r10 - 0x110]
     cc0: 7b 1a 68 ff 00 00 00 00      	stxdw [r10 - 0x98], r1
     cc8: 7b 1a df fd 00 00 00 00      	stxdw [r10 - 0x221], r1
     cd0: 61 a1 ec fe 00 00 00 00      	ldxw r1, [r10 - 0x114]
     cd8: 63 1a db fd 00 00 00 00      	stxw [r10 - 0x225], r1
     ce0: 79 a7 28 fd 00 00 00 00      	ldxdw r7, [r10 - 0x2d8]
     ce8: 07 07 00 00 08 00 00 00      	add64 r7, 0x8
     cf0: bf a1 00 00 00 00 00 00      	mov64 r1, r10
     cf8: 07 01 00 00 d8 fd ff ff      	add64 r1, -0x228
     d00: bf 72 00 00 00 00 00 00      	mov64 r2, r7
     d08: b7 03 00 00 20 00 00 00      	mov64 r3, 0x20
     d10: 85 10 00 00 33 0b 00 00      	call 0xb33
     d18: b7 06 00 00 07 00 00 00      	mov64 r6, 0x7
     d20: 67 00 00 00 20 00 00 00      	lsh64 r0, 0x20
     d28: 77 00 00 00 20 00 00 00      	rsh64 r0, 0x20
     d30: 15 00 01 00 00 00 00 00      	jeq r0, 0x0, +0x1 <.text+0xc20>
     d38: 05 00 b8 01 00 00 00 00      	ja +0x1b8 <.text+0x19e0>
     d40: bf a1 00 00 00 00 00 00      	mov64 r1, r10
     d48: 07 01 00 00 85 fd ff ff      	add64 r1, -0x27b
     d50: 7b 1a 18 fe 00 00 00 00      	stxdw [r10 - 0x1e8], r1
     d58: 7b 7a 08 fe 00 00 00 00      	stxdw [r10 - 0x1f8], r7
     d60: 18 01 00 00 7e 67 00 00 00 00 00 00 00 00 00 00      	lddw r1, 0x677e
     d70: 7b 1a f8 fd 00 00 00 00      	stxdw [r10 - 0x208], r1
     d78: 7a 0a 20 fe 01 00 00 00      	stdw [r10 - 0x1e0], 0x1
     d80: 7a 0a 10 fe 20 00 00 00      	stdw [r10 - 0x1f0], 0x20
     d88: 7a 0a 00 fe 03 00 00 00      	stdw [r10 - 0x200], 0x3
     d90: bf a1 00 00 00 00 00 00      	mov64 r1, r10
     d98: 07 01 00 00 e8 fe ff ff      	add64 r1, -0x118
     da0: bf a2 00 00 00 00 00 00      	mov64 r2, r10
     da8: 07 02 00 00 f8 fd ff ff      	add64 r2, -0x208
     db0: b7 03 00 00 03 00 00 00      	mov64 r3, 0x3
     db8: 85 10 00 00 03 ff ff ff      	call -0xfd
     dc0: 71 a1 e8 fe 00 00 00 00      	ldxb r1, [r10 - 0x118]
     dc8: 55 01 a6 01 00 00 00 00      	jne r1, 0x0, +0x1a6 <.text+0x19e0>
     dd0: 7b 7a f0 fc 00 00 00 00      	stxdw [r10 - 0x310], r7
     dd8: 79 a2 30 fd 00 00 00 00      	ldxdw r2, [r10 - 0x2d0]
     de0: 07 02 00 00 18 00 00 00      	add64 r2, 0x18
     de8: 71 a1 eb fe 00 00 00 00      	ldxb r1, [r10 - 0x115]
     df0: 73 1a 2a fe 00 00 00 00      	stxb [r10 - 0x1d6], r1
     df8: 69 a1 e9 fe 00 00 00 00      	ldxh r1, [r10 - 0x117]
     e00: 6b 1a 28 fe 00 00 00 00      	stxh [r10 - 0x1d8], r1
     e08: 71 a1 08 ff 00 00 00 00      	ldxb r1, [r10 - 0xf8]
     e10: 73 1a 80 ff 00 00 00 00      	stxb [r10 - 0x80], r1
     e18: 73 1a 47 fe 00 00 00 00      	stxb [r10 - 0x1b9], r1
     e20: 79 a1 00 ff 00 00 00 00      	ldxdw r1, [r10 - 0x100]
     e28: 7b 1a 78 ff 00 00 00 00      	stxdw [r10 - 0x88], r1
     e30: 7b 1a 3f fe 00 00 00 00      	stxdw [r10 - 0x1c1], r1
     e38: 79 a1 f8 fe 00 00 00 00      	ldxdw r1, [r10 - 0x108]
     e40: 7b 1a 70 ff 00 00 00 00      	stxdw [r10 - 0x90], r1
     e48: 7b 1a 37 fe 00 00 00 00      	stxdw [r10 - 0x1c9], r1
     e50: 79 a1 f0 fe 00 00 00 00      	ldxdw r1, [r10 - 0x110]
     e58: 7b 1a 68 ff 00 00 00 00      	stxdw [r10 - 0x98], r1
     e60: 7b 1a 2f fe 00 00 00 00      	stxdw [r10 - 0x1d1], r1
     e68: 61 a1 ec fe 00 00 00 00      	ldxw r1, [r10 - 0x114]
     e70: 63 1a 2b fe 00 00 00 00      	stxw [r10 - 0x1d5], r1
     e78: 7b 2a e8 fc 00 00 00 00      	stxdw [r10 - 0x318], r2
     e80: 79 27 00 00 00 00 00 00      	ldxdw r7, [r2 + 0x0]
     e88: 07 07 00 00 08 00 00 00      	add64 r7, 0x8
     e90: bf a1 00 00 00 00 00 00      	mov64 r1, r10
     e98: 07 01 00 00 28 fe ff ff      	add64 r1, -0x1d8
     ea0: bf 72 00 00 00 00 00 00      	mov64 r2, r7
     ea8: b7 03 00 00 20 00 00 00      	mov64 r3, 0x20
     eb0: 85 10 00 00 ff 0a 00 00      	call 0xaff
     eb8: 67 00 00 00 20 00 00 00      	lsh64 r0, 0x20
     ec0: 77 00 00 00 20 00 00 00      	rsh64 r0, 0x20
     ec8: 15 00 01 00 00 00 00 00      	jeq r0, 0x0, +0x1 <.text+0xdb8>
     ed0: 05 00 85 01 00 00 00 00      	ja +0x185 <.text+0x19e0>
     ed8: 79 a1 e8 fc 00 00 00 00      	ldxdw r1, [r10 - 0x318]
     ee0: bf a1 00 00 00 00 00 00      	mov64 r1, r10
     ee8: 07 01 00 00 86 fd ff ff      	add64 r1, -0x27a
     ef0: 7b 1a 68 fe 00 00 00 00      	stxdw [r10 - 0x198], r1
     ef8: 79 a1 f0 fc 00 00 00 00      	ldxdw r1, [r10 - 0x310]
     f00: 7b 1a 58 fe 00 00 00 00      	stxdw [r10 - 0x1a8], r1
     f08: 18 01 00 00 81 67 00 00 00 00 00 00 00 00 00 00      	lddw r1, 0x6781
     f18: 7b 1a 48 fe 00 00 00 00      	stxdw [r10 - 0x1b8], r1
     f20: 7a 0a 70 fe 01 00 00 00      	stdw [r10 - 0x190], 0x1
     f28: 7a 0a 60 fe 20 00 00 00      	stdw [r10 - 0x1a0], 0x20
     f30: 7a 0a 50 fe 02 00 00 00      	stdw [r10 - 0x1b0], 0x2
     f38: bf a1 00 00 00 00 00 00      	mov64 r1, r10
     f40: 07 01 00 00 e8 fe ff ff      	add64 r1, -0x118
     f48: bf a2 00 00 00 00 00 00      	mov64 r2, r10
     f50: 07 02 00 00 48 fe ff ff      	add64 r2, -0x1b8
     f58: b7 03 00 00 03 00 00 00      	mov64 r3, 0x3
     f60: 85 10 00 00 ce fe ff ff      	call -0x132
     f68: 71 a1 e8 fe 00 00 00 00      	ldxb r1, [r10 - 0x118]
     f70: 55 01 71 01 00 00 00 00      	jne r1, 0x0, +0x171 <.text+0x19e0>
     f78: 79 a2 30 fd 00 00 00 00      	ldxdw r2, [r10 - 0x2d0]
     f80: 07 02 00 00 20 00 00 00      	add64 r2, 0x20
     f88: 71 a1 eb fe 00 00 00 00      	ldxb r1, [r10 - 0x115]
     f90: 73 1a 7a fe 00 00 00 00      	stxb [r10 - 0x186], r1
     f98: 69 a1 e9 fe 00 00 00 00      	ldxh r1, [r10 - 0x117]
     fa0: 6b 1a 78 fe 00 00 00 00      	stxh [r10 - 0x188], r1
     fa8: 71 a1 08 ff 00 00 00 00      	ldxb r1, [r10 - 0xf8]
     fb0: 73 1a 80 ff 00 00 00 00      	stxb [r10 - 0x80], r1
     fb8: 73 1a 97 fe 00 00 00 00      	stxb [r10 - 0x169], r1
     fc0: 79 a1 00 ff 00 00 00 00      	ldxdw r1, [r10 - 0x100]
     fc8: 7b 1a 78 ff 00 00 00 00      	stxdw [r10 - 0x88], r1
     fd0: 7b 1a 8f fe 00 00 00 00      	stxdw [r10 - 0x171], r1
     fd8: 79 a1 f8 fe 00 00 00 00      	ldxdw r1, [r10 - 0x108]
     fe0: 7b 1a 70 ff 00 00 00 00      	stxdw [r10 - 0x90], r1
     fe8: 7b 1a 87 fe 00 00 00 00      	stxdw [r10 - 0x179], r1
     ff0: 79 a1 f0 fe 00 00 00 00      	ldxdw r1, [r10 - 0x110]
     ff8: 7b 1a 68 ff 00 00 00 00      	stxdw [r10 - 0x98], r1
    1000: 7b 1a 7f fe 00 00 00 00      	stxdw [r10 - 0x181], r1
    1008: 61 a1 ec fe 00 00 00 00      	ldxw r1, [r10 - 0x114]
    1010: 63 1a 7b fe 00 00 00 00      	stxw [r10 - 0x185], r1
    1018: 7b 2a e0 fc 00 00 00 00      	stxdw [r10 - 0x320], r2
    1020: 79 22 00 00 00 00 00 00      	ldxdw r2, [r2 + 0x0]
    1028: 07 02 00 00 08 00 00 00      	add64 r2, 0x8
    1030: bf a1 00 00 00 00 00 00      	mov64 r1, r10
    1038: 07 01 00 00 78 fe ff ff      	add64 r1, -0x188
    1040: 7b 2a d8 fc 00 00 00 00      	stxdw [r10 - 0x328], r2
    1048: b7 03 00 00 20 00 00 00      	mov64 r3, 0x20
    1050: 85 10 00 00 cb 0a 00 00      	call 0xacb
    1058: 67 00 00 00 20 00 00 00      	lsh64 r0, 0x20
    1060: 77 00 00 00 20 00 00 00      	rsh64 r0, 0x20
    1068: 15 00 01 00 00 00 00 00      	jeq r0, 0x0, +0x1 <.text+0xf58>
    1070: 05 00 51 01 00 00 00 00      	ja +0x151 <.text+0x19e0>
    1078: bf a1 00 00 00 00 00 00      	mov64 r1, r10
    1080: 07 01 00 00 87 fd ff ff      	add64 r1, -0x279
    1088: 7b 1a b8 fe 00 00 00 00      	stxdw [r10 - 0x148], r1
    1090: 79 a1 f0 fc 00 00 00 00      	ldxdw r1, [r10 - 0x310]
    1098: 7b 1a a8 fe 00 00 00 00      	stxdw [r10 - 0x158], r1
    10a0: 18 01 00 00 83 67 00 00 00 00 00 00 00 00 00 00      	lddw r1, 0x6783
    10b0: 7b 1a 98 fe 00 00 00 00      	stxdw [r10 - 0x168], r1
    10b8: 7a 0a c0 fe 01 00 00 00      	stdw [r10 - 0x140], 0x1
    10c0: 7a 0a b0 fe 20 00 00 00      	stdw [r10 - 0x150], 0x20
    10c8: 7a 0a a0 fe 05 00 00 00      	stdw [r10 - 0x160], 0x5
    10d0: bf a1 00 00 00 00 00 00      	mov64 r1, r10
    10d8: 07 01 00 00 e8 fe ff ff      	add64 r1, -0x118
    10e0: bf a2 00 00 00 00 00 00      	mov64 r2, r10
    10e8: 07 02 00 00 98 fe ff ff      	add64 r2, -0x168
    10f0: b7 03 00 00 03 00 00 00      	mov64 r3, 0x3
    10f8: 85 10 00 00 9b fe ff ff      	call -0x165
    1100: 71 a1 e8 fe 00 00 00 00      	ldxb r1, [r10 - 0x118]
    1108: 55 01 3e 01 00 00 00 00      	jne r1, 0x0, +0x13e <.text+0x19e0>
    1110: 79 a2 30 fd 00 00 00 00      	ldxdw r2, [r10 - 0x2d0]
    1118: 07 02 00 00 28 00 00 00      	add64 r2, 0x28
    1120: 71 a1 eb fe 00 00 00 00      	ldxb r1, [r10 - 0x115]
    1128: 73 1a ca fe 00 00 00 00      	stxb [r10 - 0x136], r1
    1130: 69 a1 e9 fe 00 00 00 00      	ldxh r1, [r10 - 0x117]
    1138: 6b 1a c8 fe 00 00 00 00      	stxh [r10 - 0x138], r1
    1140: 71 a1 08 ff 00 00 00 00      	ldxb r1, [r10 - 0xf8]
    1148: 73 1a 80 ff 00 00 00 00      	stxb [r10 - 0x80], r1
    1150: 73 1a e7 fe 00 00 00 00      	stxb [r10 - 0x119], r1
    1158: 79 a1 00 ff 00 00 00 00      	ldxdw r1, [r10 - 0x100]
    1160: 7b 1a 78 ff 00 00 00 00      	stxdw [r10 - 0x88], r1
    1168: 7b 1a df fe 00 00 00 00      	stxdw [r10 - 0x121], r1
    1170: 79 a1 f8 fe 00 00 00 00      	ldxdw r1, [r10 - 0x108]
    1178: 7b 1a 70 ff 00 00 00 00      	stxdw [r10 - 0x90], r1
    1180: 7b 1a d7 fe 00 00 00 00      	stxdw [r10 - 0x129], r1
    1188: 79 a1 f0 fe 00 00 00 00      	ldxdw r1, [r10 - 0x110]
    1190: 7b 1a 68 ff 00 00 00 00      	stxdw [r10 - 0x98], r1
    1198: 7b 1a cf fe 00 00 00 00      	stxdw [r10 - 0x131], r1
    11a0: 61 a1 ec fe 00 00 00 00      	ldxw r1, [r10 - 0x114]
    11a8: 63 1a cb fe 00 00 00 00      	stxw [r10 - 0x135], r1
    11b0: 7b 2a d0 fc 00 00 00 00      	stxdw [r10 - 0x330], r2
    11b8: 79 22 00 00 00 00 00 00      	ldxdw r2, [r2 + 0x0]
    11c0: 07 02 00 00 08 00 00 00      	add64 r2, 0x8
    11c8: bf a1 00 00 00 00 00 00      	mov64 r1, r10
    11d0: 07 01 00 00 c8 fe ff ff      	add64 r1, -0x138
    11d8: 7b 2a c8 fc 00 00 00 00      	stxdw [r10 - 0x338], r2
    11e0: b7 03 00 00 20 00 00 00      	mov64 r3, 0x20
    11e8: 85 10 00 00 98 0a 00 00      	call 0xa98
    11f0: 67 00 00 00 20 00 00 00      	lsh64 r0, 0x20
    11f8: 77 00 00 00 20 00 00 00      	rsh64 r0, 0x20
    1200: 15 00 01 00 00 00 00 00      	jeq r0, 0x0, +0x1 <.text+0x10f0>
    1208: 05 00 1e 01 00 00 00 00      	ja +0x11e <.text+0x19e0>
    1210: bf a1 00 00 00 00 00 00      	mov64 r1, r10
    1218: 07 01 00 00 84 fd ff ff      	add64 r1, -0x27c
    1220: 7b 1a 28 ff 00 00 00 00      	stxdw [r10 - 0xd8], r1
    1228: bf a1 00 00 00 00 00 00      	mov64 r1, r10
    1230: 07 01 00 00 78 fd ff ff      	add64 r1, -0x288
    1238: 7b 1a 18 ff 00 00 00 00      	stxdw [r10 - 0xe8], r1
    1240: 79 a1 f8 fc 00 00 00 00      	ldxdw r1, [r10 - 0x308]
    1248: 7b 1a 08 ff 00 00 00 00      	stxdw [r10 - 0xf8], r1
    1250: 79 a1 00 fd 00 00 00 00      	ldxdw r1, [r10 - 0x300]
    1258: 7b 1a f8 fe 00 00 00 00      	stxdw [r10 - 0x108], r1
    1260: 18 01 00 00 18 67 00 00 00 00 00 00 00 00 00 00      	lddw r1, 0x6718
    1270: 7b 1a e8 fe 00 00 00 00      	stxdw [r10 - 0x118], r1
    1278: 7a 0a 30 ff 01 00 00 00      	stdw [r10 - 0xd0], 0x1
    1280: 7a 0a 20 ff 08 00 00 00      	stdw [r10 - 0xe0], 0x8
    1288: 7a 0a 10 ff 20 00 00 00      	stdw [r10 - 0xf0], 0x20
    1290: 7a 0a 00 ff 20 00 00 00      	stdw [r10 - 0x100], 0x20
    1298: 7a 0a f0 fe 06 00 00 00      	stdw [r10 - 0x110], 0x6
    12a0: 7b 9a a0 ff 00 00 00 00      	stxdw [r10 - 0x60], r9
    12a8: 79 a1 30 fd 00 00 00 00      	ldxdw r1, [r10 - 0x2d0]
    12b0: 7b 1a 98 ff 00 00 00 00      	stxdw [r10 - 0x68], r1
    12b8: 18 01 00 00 1e 67 00 00 00 00 00 00 00 00 00 00      	lddw r1, 0x671e
    12c8: 7b 1a a8 ff 00 00 00 00      	stxdw [r10 - 0x58], r1
    12d0: 7a 0a b8 ff f8 00 00 00      	stdw [r10 - 0x48], 0xf8
    12d8: 7a 0a b0 ff 80 ee 27 00      	stdw [r10 - 0x50], 0x27ee80
    12e0: bf a1 00 00 00 00 00 00      	mov64 r1, r10
    12e8: 07 01 00 00 e8 fe ff ff      	add64 r1, -0x118
    12f0: 7b 1a 68 ff 00 00 00 00      	stxdw [r10 - 0x98], r1
    12f8: 7a 0a 70 ff 05 00 00 00      	stdw [r10 - 0x90], 0x5
    1300: bf a1 00 00 00 00 00 00      	mov64 r1, r10
    1308: 07 01 00 00 70 fd ff ff      	add64 r1, -0x290
    1310: bf a2 00 00 00 00 00 00      	mov64 r2, r10
    1318: 07 02 00 00 98 ff ff ff      	add64 r2, -0x68
    1320: bf a3 00 00 00 00 00 00      	mov64 r3, r10
    1328: 07 03 00 00 68 ff ff ff      	add64 r3, -0x98
    1330: b7 04 00 00 01 00 00 00      	mov64 r4, 0x1
    1338: 85 10 00 00 75 09 00 00      	call 0x975
    1340: 61 a6 74 fd 00 00 00 00      	ldxw r6, [r10 - 0x28c]
    1348: 61 a8 70 fd 00 00 00 00      	ldxw r8, [r10 - 0x290]
    1350: 55 08 f5 00 1a 00 00 00      	jne r8, 0x1a, +0xf5 <.text+0x19e0>
    1358: bf a1 00 00 00 00 00 00      	mov64 r1, r10
    1360: 07 01 00 00 85 fd ff ff      	add64 r1, -0x27b
    1368: 7b 1a 58 ff 00 00 00 00      	stxdw [r10 - 0xa8], r1
    1370: 79 a1 f0 fc 00 00 00 00      	ldxdw r1, [r10 - 0x310]
    1378: 7b 1a 48 ff 00 00 00 00      	stxdw [r10 - 0xb8], r1
    1380: 18 01 00 00 7e 67 00 00 00 00 00 00 00 00 00 00      	lddw r1, 0x677e
    1390: 7b 1a 38 ff 00 00 00 00      	stxdw [r10 - 0xc8], r1
    1398: 7a 0a 60 ff 01 00 00 00      	stdw [r10 - 0xa0], 0x1
    13a0: 7a 0a 50 ff 20 00 00 00      	stdw [r10 - 0xb0], 0x20
    13a8: 7a 0a 40 ff 03 00 00 00      	stdw [r10 - 0xc0], 0x3
    13b0: 79 a1 e8 fc 00 00 00 00      	ldxdw r1, [r10 - 0x318]
    13b8: 7b 1a a0 ff 00 00 00 00      	stxdw [r10 - 0x60], r1
    13c0: 79 a1 30 fd 00 00 00 00      	ldxdw r1, [r10 - 0x2d0]
    13c8: 7b 1a 98 ff 00 00 00 00      	stxdw [r10 - 0x68], r1
    13d0: 18 01 00 00 3e 67 00 00 00 00 00 00 00 00 00 00      	lddw r1, 0x673e
    13e0: 7b 1a a8 ff 00 00 00 00      	stxdw [r10 - 0x58], r1
    13e8: 7a 0a b8 ff 52 00 00 00      	stdw [r10 - 0x48], 0x52
    13f0: 7a 0a b0 ff 60 4d 16 00      	stdw [r10 - 0x50], 0x164d60
    13f8: bf a1 00 00 00 00 00 00      	mov64 r1, r10
    1400: 07 01 00 00 38 ff ff ff      	add64 r1, -0xc8
    1408: 7b 1a 68 ff 00 00 00 00      	stxdw [r10 - 0x98], r1
    1410: 7a 0a 70 ff 03 00 00 00      	stdw [r10 - 0x90], 0x3
    1418: bf a1 00 00 00 00 00 00      	mov64 r1, r10
    1420: 07 01 00 00 68 fd ff ff      	add64 r1, -0x298
    1428: bf a2 00 00 00 00 00 00      	mov64 r2, r10
    1430: 07 02 00 00 98 ff ff ff      	add64 r2, -0x68
    1438: bf a3 00 00 00 00 00 00      	mov64 r3, r10
    1440: 07 03 00 00 68 ff ff ff      	add64 r3, -0x98
    1448: b7 04 00 00 01 00 00 00      	mov64 r4, 0x1
    1450: 85 10 00 00 52 09 00 00      	call 0x952
    1458: 61 a6 6c fd 00 00 00 00      	ldxw r6, [r10 - 0x294]
    1460: 61 a8 68 fd 00 00 00 00      	ldxw r8, [r10 - 0x298]
    1468: 55 08 d2 00 1a 00 00 00      	jne r8, 0x1a, +0xd2 <.text+0x19e0>
    1470: 79 a1 e8 fc 00 00 00 00      	ldxdw r1, [r10 - 0x318]
    1478: 7b 1a 98 ff 00 00 00 00      	stxdw [r10 - 0x68], r1
    1480: 79 a1 f0 fc 00 00 00 00      	ldxdw r1, [r10 - 0x310]
    1488: 7b 1a a0 ff 00 00 00 00      	stxdw [r10 - 0x60], r1
    1490: 72 0a b0 ff 06 00 00 00      	stb [r10 - 0x50], 0x6
    1498: 7a 0a a8 ff 00 00 00 00      	stdw [r10 - 0x58], 0x0
    14a0: bf a1 00 00 00 00 00 00      	mov64 r1, r10
    14a8: 07 01 00 00 60 fd ff ff      	add64 r1, -0x2a0
    14b0: bf a2 00 00 00 00 00 00      	mov64 r2, r10
    14b8: 07 02 00 00 98 ff ff ff      	add64 r2, -0x68
    14c0: b7 03 00 00 08 00 00 00      	mov64 r3, 0x8
    14c8: b7 04 00 00 00 00 00 00      	mov64 r4, 0x0
    14d0: 85 10 00 00 8c 07 00 00      	call 0x78c
    14d8: 61 a6 64 fd 00 00 00 00      	ldxw r6, [r10 - 0x29c]
    14e0: 61 a8 60 fd 00 00 00 00      	ldxw r8, [r10 - 0x2a0]
    14e8: 55 08 c2 00 1a 00 00 00      	jne r8, 0x1a, +0xc2 <.text+0x19e0>
    14f0: bf a1 00 00 00 00 00 00      	mov64 r1, r10
    14f8: 07 01 00 00 86 fd ff ff      	add64 r1, -0x27a
    1500: 7b 1a 88 ff 00 00 00 00      	stxdw [r10 - 0x78], r1
    1508: 79 a1 f0 fc 00 00 00 00      	ldxdw r1, [r10 - 0x310]
    1510: 7b 1a 78 ff 00 00 00 00      	stxdw [r10 - 0x88], r1
    1518: 18 01 00 00 81 67 00 00 00 00 00 00 00 00 00 00      	lddw r1, 0x6781
    1528: 7b 1a 68 ff 00 00 00 00      	stxdw [r10 - 0x98], r1
    1530: 7a 0a 90 ff 01 00 00 00      	stdw [r10 - 0x70], 0x1
    1538: 7a 0a 80 ff 20 00 00 00      	stdw [r10 - 0x80], 0x20
    1540: 7a 0a 70 ff 02 00 00 00      	stdw [r10 - 0x90], 0x2
    1548: 79 a1 e0 fc 00 00 00 00      	ldxdw r1, [r10 - 0x320]
    1550: 7b 1a a0 ff 00 00 00 00      	stxdw [r10 - 0x60], r1
    1558: 79 a1 30 fd 00 00 00 00      	ldxdw r1, [r10 - 0x2d0]
    1560: 7b 1a 98 ff 00 00 00 00      	stxdw [r10 - 0x68], r1
    1568: 18 01 00 00 3e 67 00 00 00 00 00 00 00 00 00 00      	lddw r1, 0x673e
    1578: 7b 1a a8 ff 00 00 00 00      	stxdw [r10 - 0x58], r1
    1580: 7a 0a b8 ff 52 00 00 00      	stdw [r10 - 0x48], 0x52
    1588: 7a 0a b0 ff 60 4d 16 00      	stdw [r10 - 0x50], 0x164d60
    1590: bf a1 00 00 00 00 00 00      	mov64 r1, r10
    1598: 07 01 00 00 68 ff ff ff      	add64 r1, -0x98
    15a0: 7b 1a c8 ff 00 00 00 00      	stxdw [r10 - 0x38], r1
    15a8: 7a 0a d0 ff 03 00 00 00      	stdw [r10 - 0x30], 0x3
    15b0: bf a1 00 00 00 00 00 00      	mov64 r1, r10
    15b8: 07 01 00 00 58 fd ff ff      	add64 r1, -0x2a8
    15c0: bf a2 00 00 00 00 00 00      	mov64 r2, r10
    15c8: 07 02 00 00 98 ff ff ff      	add64 r2, -0x68
    15d0: bf a3 00 00 00 00 00 00      	mov64 r3, r10
    15d8: 07 03 00 00 c8 ff ff ff      	add64 r3, -0x38
    15e0: b7 04 00 00 01 00 00 00      	mov64 r4, 0x1
    15e8: 85 10 00 00 1f 09 00 00      	call 0x91f
    15f0: 61 a6 5c fd 00 00 00 00      	ldxw r6, [r10 - 0x2a4]
    15f8: 61 a8 58 fd 00 00 00 00      	ldxw r8, [r10 - 0x2a8]
    1600: 55 08 9f 00 1a 00 00 00      	jne r8, 0x1a, +0x9f <.text+0x19e0>
    1608: 79 a1 e0 fc 00 00 00 00      	ldxdw r1, [r10 - 0x320]
    1610: 7b 1a 98 ff 00 00 00 00      	stxdw [r10 - 0x68], r1
    1618: 79 a1 f0 fc 00 00 00 00      	ldxdw r1, [r10 - 0x310]
    1620: 7b 1a a0 ff 00 00 00 00      	stxdw [r10 - 0x60], r1
    1628: 72 0a b0 ff 06 00 00 00      	stb [r10 - 0x50], 0x6
    1630: 7a 0a a8 ff 00 00 00 00      	stdw [r10 - 0x58], 0x0
    1638: bf a1 00 00 00 00 00 00      	mov64 r1, r10
    1640: 07 01 00 00 50 fd ff ff      	add64 r1, -0x2b0
    1648: bf a2 00 00 00 00 00 00      	mov64 r2, r10
    1650: 07 02 00 00 98 ff ff ff      	add64 r2, -0x68
    1658: b7 03 00 00 08 00 00 00      	mov64 r3, 0x8
    1660: b7 04 00 00 00 00 00 00      	mov64 r4, 0x0
    1668: 85 10 00 00 59 07 00 00      	call 0x759
    1670: 61 a6 54 fd 00 00 00 00      	ldxw r6, [r10 - 0x2ac]
    1678: 61 a8 50 fd 00 00 00 00      	ldxw r8, [r10 - 0x2b0]
    1680: 55 08 8f 00 1a 00 00 00      	jne r8, 0x1a, +0x8f <.text+0x19e0>
    1688: bf a1 00 00 00 00 00 00      	mov64 r1, r10
    1690: 07 01 00 00 87 fd ff ff      	add64 r1, -0x279
    1698: 7b 1a b8 ff 00 00 00 00      	stxdw [r10 - 0x48], r1
    16a0: 79 a1 f0 fc 00 00 00 00      	ldxdw r1, [r10 - 0x310]
    16a8: 7b 1a a8 ff 00 00 00 00      	stxdw [r10 - 0x58], r1
    16b0: 18 01 00 00 83 67 00 00 00 00 00 00 00 00 00 00      	lddw r1, 0x6783
    16c0: 7b 1a 98 ff 00 00 00 00      	stxdw [r10 - 0x68], r1
    16c8: 7a 0a c0 ff 01 00 00 00      	stdw [r10 - 0x40], 0x1
    16d0: 7a 0a b0 ff 20 00 00 00      	stdw [r10 - 0x50], 0x20
    16d8: 7a 0a a0 ff 05 00 00 00      	stdw [r10 - 0x60], 0x5
    16e0: 79 a1 d0 fc 00 00 00 00      	ldxdw r1, [r10 - 0x330]
    16e8: 7b 1a d0 ff 00 00 00 00      	stxdw [r10 - 0x30], r1
    16f0: 79 a1 30 fd 00 00 00 00      	ldxdw r1, [r10 - 0x2d0]
    16f8: 7b 1a c8 ff 00 00 00 00      	stxdw [r10 - 0x38], r1
    1700: 18 01 00 00 3e 67 00 00 00 00 00 00 00 00 00 00      	lddw r1, 0x673e
    1710: 7b 1a d8 ff 00 00 00 00      	stxdw [r10 - 0x28], r1
    1718: 7a 0a e8 ff a5 00 00 00      	stdw [r10 - 0x18], 0xa5
    1720: 7a 0a e0 ff f0 1d 1f 00      	stdw [r10 - 0x20], 0x1f1df0
    1728: bf a1 00 00 00 00 00 00      	mov64 r1, r10
    1730: 07 01 00 00 98 ff ff ff      	add64 r1, -0x68
    1738: 7b 1a f0 ff 00 00 00 00      	stxdw [r10 - 0x10], r1
    1740: 7a 0a f8 ff 03 00 00 00      	stdw [r10 - 0x8], 0x3
    1748: bf a1 00 00 00 00 00 00      	mov64 r1, r10
    1750: 07 01 00 00 48 fd ff ff      	add64 r1, -0x2b8
    1758: bf a2 00 00 00 00 00 00      	mov64 r2, r10
    1760: 07 02 00 00 c8 ff ff ff      	add64 r2, -0x38
    1768: bf a3 00 00 00 00 00 00      	mov64 r3, r10
    1770: 07 03 00 00 f0 ff ff ff      	add64 r3, -0x10
    1778: b7 04 00 00 01 00 00 00      	mov64 r4, 0x1
    1780: 85 10 00 00 ec 08 00 00      	call 0x8ec
    1788: 61 a6 4c fd 00 00 00 00      	ldxw r6, [r10 - 0x2b4]
    1790: 61 a8 48 fd 00 00 00 00      	ldxw r8, [r10 - 0x2b8]
    1798: 55 08 6c 00 1a 00 00 00      	jne r8, 0x1a, +0x6c <.text+0x19e0>
    17a0: 79 a1 30 fd 00 00 00 00      	ldxdw r1, [r10 - 0x2d0]
    17a8: 07 01 00 00 10 00 00 00      	add64 r1, 0x10
    17b0: 79 a2 f0 fc 00 00 00 00      	ldxdw r2, [r10 - 0x310]
    17b8: 7b 2a d8 ff 00 00 00 00      	stxdw [r10 - 0x28], r2
    17c0: 7b 1a d0 ff 00 00 00 00      	stxdw [r10 - 0x30], r1
    17c8: 79 a1 d0 fc 00 00 00 00      	ldxdw r1, [r10 - 0x330]
    17d0: 7b 1a c8 ff 00 00 00 00      	stxdw [r10 - 0x38], r1
    17d8: bf a1 00 00 00 00 00 00      	mov64 r1, r10
    17e0: 07 01 00 00 40 fd ff ff      	add64 r1, -0x2c0
    17e8: bf a2 00 00 00 00 00 00      	mov64 r2, r10
    17f0: 07 02 00 00 c8 ff ff ff      	add64 r2, -0x38
    17f8: b7 03 00 00 08 00 00 00      	mov64 r3, 0x8
    1800: b7 04 00 00 00 00 00 00      	mov64 r4, 0x0
    1808: 85 10 00 00 bf 06 00 00      	call 0x6bf
    1810: 61 a6 44 fd 00 00 00 00      	ldxw r6, [r10 - 0x2bc]
    1818: 61 a8 40 fd 00 00 00 00      	ldxw r8, [r10 - 0x2c0]
    1820: 55 08 5b 00 1a 00 00 00      	jne r8, 0x1a, +0x5b <.text+0x19e0>
    1828: b7 08 00 00 0b 00 00 00      	mov64 r8, 0xb
    1830: 79 a1 28 fd 00 00 00 00      	ldxdw r1, [r10 - 0x2d8]
    1838: 71 11 00 00 00 00 00 00      	ldxb r1, [r1 + 0x0]
    1840: bf 12 00 00 00 00 00 00      	mov64 r2, r1
    1848: 57 02 00 00 0f 00 00 00      	and64 r2, 0xf
    1850: b7 06 00 00 00 00 00 00      	mov64 r6, 0x0
    1858: 55 02 54 00 00 00 00 00      	jne r2, 0x0, +0x54 <.text+0x19e0>
    1860: bf 12 00 00 00 00 00 00      	mov64 r2, r1
    1868: 47 02 00 00 08 00 00 00      	or64 r2, 0x8
    1870: 79 a3 28 fd 00 00 00 00      	ldxdw r3, [r10 - 0x2d8]
    1878: 73 23 00 00 00 00 00 00      	stxb [r3 + 0x0], r2
    1880: 79 32 50 00 00 00 00 00      	ldxdw r2, [r3 + 0x50]
    1888: 55 02 52 00 f8 00 00 00      	jne r2, 0xf8, +0x52 <.text+0x1a00>
    1890: 79 a5 28 fd 00 00 00 00      	ldxdw r5, [r10 - 0x2d8]
    1898: 79 a1 18 fd 00 00 00 00      	ldxdw r1, [r10 - 0x2e8]
    18a0: 73 15 58 00 00 00 00 00      	stxb [r5 + 0x58], r1
    18a8: 62 05 59 00 00 00 00 00      	stw [r5 + 0x59], 0x0
    18b0: 62 05 5c 00 00 00 00 00      	stw [r5 + 0x5c], 0x0
    18b8: 79 a4 00 fd 00 00 00 00      	ldxdw r4, [r10 - 0x300]
    18c0: 79 41 00 00 00 00 00 00      	ldxdw r1, [r4 + 0x0]
    18c8: 79 42 08 00 00 00 00 00      	ldxdw r2, [r4 + 0x8]
    18d0: 79 43 10 00 00 00 00 00      	ldxdw r3, [r4 + 0x10]
    18d8: 79 44 18 00 00 00 00 00      	ldxdw r4, [r4 + 0x18]
    18e0: 7b 45 78 00 00 00 00 00      	stxdw [r5 + 0x78], r4
    18e8: 7b 35 70 00 00 00 00 00      	stxdw [r5 + 0x70], r3
    18f0: 7b 25 68 00 00 00 00 00      	stxdw [r5 + 0x68], r2
    18f8: 7b 15 60 00 00 00 00 00      	stxdw [r5 + 0x60], r1
    1900: 79 71 00 00 00 00 00 00      	ldxdw r1, [r7 + 0x0]
    1908: 79 72 08 00 00 00 00 00      	ldxdw r2, [r7 + 0x8]
    1910: 79 73 10 00 00 00 00 00      	ldxdw r3, [r7 + 0x10]
    1918: 79 74 18 00 00 00 00 00      	ldxdw r4, [r7 + 0x18]
    1920: 7b 45 98 00 00 00 00 00      	stxdw [r5 + 0x98], r4
    1928: 7b 35 90 00 00 00 00 00      	stxdw [r5 + 0x90], r3
    1930: 7b 25 88 00 00 00 00 00      	stxdw [r5 + 0x88], r2
    1938: 7b 15 80 00 00 00 00 00      	stxdw [r5 + 0x80], r1
    1940: 79 a4 d8 fc 00 00 00 00      	ldxdw r4, [r10 - 0x328]
    1948: 79 41 00 00 00 00 00 00      	ldxdw r1, [r4 + 0x0]
    1950: 79 42 08 00 00 00 00 00      	ldxdw r2, [r4 + 0x8]
    1958: 79 43 10 00 00 00 00 00      	ldxdw r3, [r4 + 0x10]
    1960: 79 44 18 00 00 00 00 00      	ldxdw r4, [r4 + 0x18]
    1968: 7b 45 b8 00 00 00 00 00      	stxdw [r5 + 0xb8], r4
    1970: 7b 35 b0 00 00 00 00 00      	stxdw [r5 + 0xb0], r3
    1978: 7b 25 a8 00 00 00 00 00      	stxdw [r5 + 0xa8], r2
    1980: 7b 15 a0 00 00 00 00 00      	stxdw [r5 + 0xa0], r1
    1988: 79 a4 c8 fc 00 00 00 00      	ldxdw r4, [r10 - 0x338]
    1990: 79 41 00 00 00 00 00 00      	ldxdw r1, [r4 + 0x0]
    1998: 79 42 08 00 00 00 00 00      	ldxdw r2, [r4 + 0x8]
    19a0: 79 43 10 00 00 00 00 00      	ldxdw r3, [r4 + 0x10]
    19a8: 79 44 18 00 00 00 00 00      	ldxdw r4, [r4 + 0x18]
    19b0: 7b 45 d8 00 00 00 00 00      	stxdw [r5 + 0xd8], r4
    19b8: 7b 35 d0 00 00 00 00 00      	stxdw [r5 + 0xd0], r3
    19c0: 7b 25 c8 00 00 00 00 00      	stxdw [r5 + 0xc8], r2
    19c8: 7b 15 c0 00 00 00 00 00      	stxdw [r5 + 0xc0], r1
    19d0: 79 a1 30 fd 00 00 00 00      	ldxdw r1, [r10 - 0x2d0]
    19d8: 79 11 30 00 00 00 00 00      	ldxdw r1, [r1 + 0x30]
    19e0: 79 12 08 00 00 00 00 00      	ldxdw r2, [r1 + 0x8]
    19e8: 79 13 10 00 00 00 00 00      	ldxdw r3, [r1 + 0x10]
    19f0: 79 14 18 00 00 00 00 00      	ldxdw r4, [r1 + 0x18]
    19f8: 79 11 20 00 00 00 00 00      	ldxdw r1, [r1 + 0x20]
    1a00: 7b 15 f8 00 00 00 00 00      	stxdw [r5 + 0xf8], r1
    1a08: 7b 45 f0 00 00 00 00 00      	stxdw [r5 + 0xf0], r4
    1a10: 7b 35 e8 00 00 00 00 00      	stxdw [r5 + 0xe8], r3
    1a18: 7b 25 e0 00 00 00 00 00      	stxdw [r5 + 0xe0], r2
    1a20: 79 a4 f8 fc 00 00 00 00      	ldxdw r4, [r10 - 0x308]
    1a28: 79 41 00 00 00 00 00 00      	ldxdw r1, [r4 + 0x0]
    1a30: 79 42 08 00 00 00 00 00      	ldxdw r2, [r4 + 0x8]
    1a38: 79 43 10 00 00 00 00 00      	ldxdw r3, [r4 + 0x10]
    1a40: 79 44 18 00 00 00 00 00      	ldxdw r4, [r4 + 0x18]
    1a48: 7b 45 18 01 00 00 00 00      	stxdw [r5 + 0x118], r4
    1a50: 7b 35 10 01 00 00 00 00      	stxdw [r5 + 0x110], r3
    1a58: 7b 25 08 01 00 00 00 00      	stxdw [r5 + 0x108], r2
    1a60: 7b 15 00 01 00 00 00 00      	stxdw [r5 + 0x100], r1
    1a68: 79 a4 20 fd 00 00 00 00      	ldxdw r4, [r10 - 0x2e0]
    1a70: 79 41 08 00 00 00 00 00      	ldxdw r1, [r4 + 0x8]
    1a78: 79 42 10 00 00 00 00 00      	ldxdw r2, [r4 + 0x10]
    1a80: 79 43 18 00 00 00 00 00      	ldxdw r3, [r4 + 0x18]
    1a88: 79 44 20 00 00 00 00 00      	ldxdw r4, [r4 + 0x20]
    1a90: 7b 45 38 01 00 00 00 00      	stxdw [r5 + 0x138], r4
    1a98: 7b 35 30 01 00 00 00 00      	stxdw [r5 + 0x130], r3
    1aa0: 7b 25 28 01 00 00 00 00      	stxdw [r5 + 0x128], r2
    1aa8: 7b 15 20 01 00 00 00 00      	stxdw [r5 + 0x120], r1
    1ab0: 79 a1 08 fd 00 00 00 00      	ldxdw r1, [r10 - 0x2f8]
    1ab8: 7b 15 48 01 00 00 00 00      	stxdw [r5 + 0x148], r1
    1ac0: 79 a1 10 fd 00 00 00 00      	ldxdw r1, [r10 - 0x2f0]
    1ac8: 7b 15 40 01 00 00 00 00      	stxdw [r5 + 0x140], r1
    1ad0: 71 51 00 00 00 00 00 00      	ldxb r1, [r5 + 0x0]
    1ad8: 57 01 00 00 f7 00 00 00      	and64 r1, 0xf7
    1ae0: 73 15 00 00 00 00 00 00      	stxb [r5 + 0x0], r1
    1ae8: b7 08 00 00 1a 00 00 00      	mov64 r8, 0x1a
    1af0: 05 00 01 00 00 00 00 00      	ja +0x1 <.text+0x19e0>
    1af8: b7 06 00 00 07 00 00 00      	mov64 r6, 0x7
    1b00: 79 a1 38 fd 00 00 00 00      	ldxdw r1, [r10 - 0x2c8]
    1b08: 63 61 04 00 00 00 00 00      	stxw [r1 + 0x4], r6
    1b10: 63 81 00 00 00 00 00 00      	stxw [r1 + 0x0], r8
    1b18: 95 00 00 00 00 00 00 00      	exit
    1b20: 79 a2 28 fd 00 00 00 00      	ldxdw r2, [r10 - 0x2d8]
    1b28: 73 12 00 00 00 00 00 00      	stxb [r2 + 0x0], r1
    1b30: b7 08 00 00 00 00 00 00      	mov64 r8, 0x0
    1b38: b7 06 00 00 01 00 00 00      	mov64 r6, 0x1
    1b40: 05 00 f7 ff 00 00 00 00      	ja -0x9 <.text+0x19e0>
    1b48: b7 08 00 00 00 00 00 00      	mov64 r8, 0x0
    1b50: b7 07 00 00 00 00 00 00      	mov64 r7, 0x0
    1b58: 55 05 04 00 08 00 00 00      	jne r5, 0x8, +0x4 <.text+0x1a60>
    1b60: 79 49 00 00 00 00 00 00      	ldxdw r9, [r4 + 0x0]
    1b68: 15 09 02 00 00 00 00 00      	jeq r9, 0x0, +0x2 <.text+0x1a60>
    1b70: b7 07 00 00 0a 00 00 00      	mov64 r7, 0xa
    1b78: 15 03 03 00 09 00 00 00      	jeq r3, 0x9, +0x3 <.text+0x1a78>
    1b80: 63 81 04 00 00 00 00 00      	stxw [r1 + 0x4], r8
    1b88: 63 71 00 00 00 00 00 00      	stxw [r1 + 0x0], r7
    1b90: 95 00 00 00 00 00 00 00      	exit
    1b98: b7 07 00 00 07 00 00 00      	mov64 r7, 0x7
    1ba0: 79 23 00 00 00 00 00 00      	ldxdw r3, [r2 + 0x0]
    1ba8: 71 33 01 00 00 00 00 00      	ldxb r3, [r3 + 0x1]
    1bb0: 15 03 f9 ff 00 00 00 00      	jeq r3, 0x0, -0x7 <.text+0x1a60>
    1bb8: 7b 1a 68 fd 00 00 00 00      	stxdw [r10 - 0x298], r1
    1bc0: 7b 2a 60 fd 00 00 00 00      	stxdw [r10 - 0x2a0], r2
    1bc8: bf 26 00 00 00 00 00 00      	mov64 r6, r2
    1bd0: 07 06 00 00 08 00 00 00      	add64 r6, 0x8
    1bd8: 79 61 00 00 00 00 00 00      	ldxdw r1, [r6 + 0x0]
    1be0: 07 01 00 00 28 00 00 00      	add64 r1, 0x28
    1be8: 18 02 00 00 1e 67 00 00 00 00 00 00 00 00 00 00      	lddw r2, 0x671e
    1bf8: b7 03 00 00 20 00 00 00      	mov64 r3, 0x20
    1c00: 85 10 00 00 55 09 00 00      	call 0x955
    1c08: b7 07 00 00 00 00 00 00      	mov64 r7, 0x0
    1c10: 67 00 00 00 20 00 00 00      	lsh64 r0, 0x20
    1c18: 77 00 00 00 20 00 00 00      	rsh64 r0, 0x20
    1c20: b7 08 00 00 01 00 00 00      	mov64 r8, 0x1
    1c28: 55 00 b4 00 00 00 00 00      	jne r0, 0x0, +0xb4 <.text+0x20b0>
    1c30: bf a1 00 00 00 00 00 00      	mov64 r1, r10
    1c38: 07 01 00 00 70 ff ff ff      	add64 r1, -0x90
    1c40: 7b 6a 58 fd 00 00 00 00      	stxdw [r10 - 0x2a8], r6
    1c48: bf 62 00 00 00 00 00 00      	mov64 r2, r6
    1c50: 85 10 00 00 84 08 00 00      	call 0x884
    1c58: 61 a8 7c ff 00 00 00 00      	ldxw r8, [r10 - 0x84]
    1c60: 61 a1 78 ff 00 00 00 00      	ldxw r1, [r10 - 0x88]
    1c68: 79 a6 70 ff 00 00 00 00      	ldxdw r6, [r10 - 0x90]
    1c70: 15 06 a6 00 00 00 00 00      	jeq r6, 0x0, +0xa6 <.text+0x2088>
    1c78: 67 08 00 00 20 00 00 00      	lsh64 r8, 0x20
    1c80: 4f 18 00 00 00 00 00 00      	or64 r8, r1
    1c88: 71 a2 88 ff 00 00 00 00      	ldxb r2, [r10 - 0x78]
    1c90: 79 a1 80 ff 00 00 00 00      	ldxdw r1, [r10 - 0x80]
    1c98: 15 08 01 00 f8 00 00 00      	jeq r8, 0xf8, +0x1 <.text+0x1b88>
    1ca0: 05 00 a3 00 00 00 00 00      	ja +0xa3 <.text+0x20a0>
    1ca8: 61 68 00 00 00 00 00 00      	ldxw r8, [r6 + 0x0]
    1cb0: 7b 2a 38 fd 00 00 00 00      	stxdw [r10 - 0x2c8], r2
    1cb8: bf 62 00 00 00 00 00 00      	mov64 r2, r6
    1cc0: 07 02 00 00 04 00 00 00      	add64 r2, 0x4
    1cc8: bf a3 00 00 00 00 00 00      	mov64 r3, r10
    1cd0: 07 03 00 00 80 fe ff ff      	add64 r3, -0x180
    1cd8: 7b 3a 48 fd 00 00 00 00      	stxdw [r10 - 0x2b8], r3
    1ce0: 7b 1a 30 fd 00 00 00 00      	stxdw [r10 - 0x2d0], r1
    1ce8: bf 31 00 00 00 00 00 00      	mov64 r1, r3
    1cf0: b7 03 00 00 e4 00 00 00      	mov64 r3, 0xe4
    1cf8: 85 10 00 00 32 09 00 00      	call 0x932
    1d00: 79 61 e8 00 00 00 00 00      	ldxdw r1, [r6 + 0xe8]
    1d08: 7b 1a 50 fd 00 00 00 00      	stxdw [r10 - 0x2b0], r1
    1d10: 79 61 f0 00 00 00 00 00      	ldxdw r1, [r6 + 0xf0]
    1d18: 7b 1a 40 fd 00 00 00 00      	stxdw [r10 - 0x2c0], r1
    1d20: 79 a1 30 fd 00 00 00 00      	ldxdw r1, [r10 - 0x2d0]
    1d28: 79 a2 38 fd 00 00 00 00      	ldxdw r2, [r10 - 0x2c8]
    1d30: 85 10 00 00 7d fc ff ff      	call -0x383
    1d38: 63 8a 88 fd 00 00 00 00      	stxw [r10 - 0x278], r8
    1d40: bf 86 00 00 00 00 00 00      	mov64 r6, r8
    1d48: bf a1 00 00 00 00 00 00      	mov64 r1, r10
    1d50: 07 01 00 00 8c fd ff ff      	add64 r1, -0x274
    1d58: 79 a2 48 fd 00 00 00 00      	ldxdw r2, [r10 - 0x2b8]
    1d60: b7 03 00 00 e4 00 00 00      	mov64 r3, 0xe4
    1d68: 85 10 00 00 24 09 00 00      	call 0x924
    1d70: 79 a1 40 fd 00 00 00 00      	ldxdw r1, [r10 - 0x2c0]
    1d78: 7b 1a 78 fe 00 00 00 00      	stxdw [r10 - 0x188], r1
    1d80: b7 08 00 00 05 00 00 00      	mov64 r8, 0x5
    1d88: 79 a1 50 fd 00 00 00 00      	ldxdw r1, [r10 - 0x2b0]
    1d90: 7b 1a 70 fe 00 00 00 00      	stxdw [r10 - 0x190], r1
    1d98: bf 61 00 00 00 00 00 00      	mov64 r1, r6
    1da0: 57 01 00 00 00 ff 00 00      	and64 r1, 0xff00
    1da8: 79 a2 58 fd 00 00 00 00      	ldxdw r2, [r10 - 0x2a8]
    1db0: 55 01 83 00 00 00 00 00      	jne r1, 0x0, +0x83 <.text+0x20b0>
    1db8: 79 a1 60 fd 00 00 00 00      	ldxdw r1, [r10 - 0x2a0]
    1dc0: 07 01 00 00 18 00 00 00      	add64 r1, 0x18
    1dc8: 7b 1a 48 fd 00 00 00 00      	stxdw [r10 - 0x2b8], r1
    1dd0: 79 12 00 00 00 00 00 00      	ldxdw r2, [r1 + 0x0]
    1dd8: 07 02 00 00 08 00 00 00      	add64 r2, 0x8
    1de0: bf a1 00 00 00 00 00 00      	mov64 r1, r10
    1de8: 07 01 00 00 f0 fd ff ff      	add64 r1, -0x210
    1df0: b7 03 00 00 20 00 00 00      	mov64 r3, 0x20
    1df8: 85 10 00 00 16 09 00 00      	call 0x916
    1e00: 67 00 00 00 20 00 00 00      	lsh64 r0, 0x20
    1e08: 77 00 00 00 20 00 00 00      	rsh64 r0, 0x20
    1e10: b7 08 00 00 01 00 00 00      	mov64 r8, 0x1
    1e18: 55 00 76 00 00 00 00 00      	jne r0, 0x0, +0x76 <.text+0x20b0>
    1e20: 79 a1 60 fd 00 00 00 00      	ldxdw r1, [r10 - 0x2a0]
    1e28: 07 01 00 00 20 00 00 00      	add64 r1, 0x20
    1e30: 7b 1a 40 fd 00 00 00 00      	stxdw [r10 - 0x2c0], r1
    1e38: 79 12 00 00 00 00 00 00      	ldxdw r2, [r1 + 0x0]
    1e40: 07 02 00 00 08 00 00 00      	add64 r2, 0x8
    1e48: bf a1 00 00 00 00 00 00      	mov64 r1, r10
    1e50: 07 01 00 00 b0 fd ff ff      	add64 r1, -0x250
    1e58: b7 03 00 00 20 00 00 00      	mov64 r3, 0x20
    1e60: 85 10 00 00 09 09 00 00      	call 0x909
    1e68: 67 00 00 00 20 00 00 00      	lsh64 r0, 0x20
    1e70: 77 00 00 00 20 00 00 00      	rsh64 r0, 0x20
    1e78: 55 00 6a 00 00 00 00 00      	jne r0, 0x0, +0x6a <.text+0x20b0>
    1e80: 79 a1 60 fd 00 00 00 00      	ldxdw r1, [r10 - 0x2a0]
    1e88: 07 01 00 00 28 00 00 00      	add64 r1, 0x28
    1e90: 7b 1a 38 fd 00 00 00 00      	stxdw [r10 - 0x2c8], r1
    1e98: 79 12 00 00 00 00 00 00      	ldxdw r2, [r1 + 0x0]
    1ea0: 07 02 00 00 08 00 00 00      	add64 r2, 0x8
    1ea8: bf a1 00 00 00 00 00 00      	mov64 r1, r10
    1eb0: 07 01 00 00 d0 fd ff ff      	add64 r1, -0x230
    1eb8: b7 03 00 00 20 00 00 00      	mov64 r3, 0x20
    1ec0: 85 10 00 00 fd 08 00 00      	call 0x8fd
    1ec8: 67 00 00 00 20 00 00 00      	lsh64 r0, 0x20
    1ed0: 77 00 00 00 20 00 00 00      	rsh64 r0, 0x20
    1ed8: 55 00 5e 00 00 00 00 00      	jne r0, 0x0, +0x5e <.text+0x20b0>
    1ee0: 79 a1 60 fd 00 00 00 00      	ldxdw r1, [r10 - 0x2a0]
    1ee8: bf 12 00 00 00 00 00 00      	mov64 r2, r1
    1ef0: 07 02 00 00 10 00 00 00      	add64 r2, 0x10
    1ef8: 7b 9a 88 ff 00 00 00 00      	stxdw [r10 - 0x78], r9
    1f00: 7b 1a 80 ff 00 00 00 00      	stxdw [r10 - 0x80], r1
    1f08: 79 a1 48 fd 00 00 00 00      	ldxdw r1, [r10 - 0x2b8]
    1f10: 7b 1a 78 ff 00 00 00 00      	stxdw [r10 - 0x88], r1
    1f18: 7b 2a 70 ff 00 00 00 00      	stxdw [r10 - 0x90], r2
    1f20: bf a1 00 00 00 00 00 00      	mov64 r1, r10
    1f28: 07 01 00 00 80 fd ff ff      	add64 r1, -0x280
    1f30: bf a2 00 00 00 00 00 00      	mov64 r2, r10
    1f38: 07 02 00 00 70 ff ff ff      	add64 r2, -0x90
    1f40: b7 03 00 00 08 00 00 00      	mov64 r3, 0x8
    1f48: b7 04 00 00 00 00 00 00      	mov64 r4, 0x0
    1f50: 85 10 00 00 3f 07 00 00      	call 0x73f
    1f58: 61 a8 84 fd 00 00 00 00      	ldxw r8, [r10 - 0x27c]
    1f60: 61 a7 80 fd 00 00 00 00      	ldxw r7, [r10 - 0x280]
    1f68: 55 07 4c 00 1a 00 00 00      	jne r7, 0x1a, +0x4c <.text+0x20b0>
    1f70: 79 a1 60 fd 00 00 00 00      	ldxdw r1, [r10 - 0x2a0]
    1f78: 07 01 00 00 30 00 00 00      	add64 r1, 0x30
    1f80: 73 6a 67 ff 00 00 00 00      	stxb [r10 - 0x99], r6
    1f88: 79 a2 50 fd 00 00 00 00      	ldxdw r2, [r10 - 0x2b0]
    1f90: 7b 2a 68 ff 00 00 00 00      	stxdw [r10 - 0x98], r2
    1f98: bf a2 00 00 00 00 00 00      	mov64 r2, r10
    1fa0: 07 02 00 00 67 ff ff ff      	add64 r2, -0x99
    1fa8: 7b 2a b0 ff 00 00 00 00      	stxdw [r10 - 0x50], r2
    1fb0: bf a2 00 00 00 00 00 00      	mov64 r2, r10
    1fb8: 07 02 00 00 68 ff ff ff      	add64 r2, -0x98
    1fc0: 7b 2a a0 ff 00 00 00 00      	stxdw [r10 - 0x60], r2
    1fc8: bf a2 00 00 00 00 00 00      	mov64 r2, r10
    1fd0: 07 02 00 00 30 fe ff ff      	add64 r2, -0x1d0
    1fd8: 7b 2a 90 ff 00 00 00 00      	stxdw [r10 - 0x70], r2
    1fe0: bf a2 00 00 00 00 00 00      	mov64 r2, r10
    1fe8: 07 02 00 00 90 fd ff ff      	add64 r2, -0x270
    1ff0: 7b 2a 80 ff 00 00 00 00      	stxdw [r10 - 0x80], r2
    1ff8: 18 02 00 00 18 67 00 00 00 00 00 00 00 00 00 00      	lddw r2, 0x6718
    2008: 7b 2a 70 ff 00 00 00 00      	stxdw [r10 - 0x90], r2
    2010: 7a 0a b8 ff 01 00 00 00      	stdw [r10 - 0x48], 0x1
    2018: 7a 0a a8 ff 08 00 00 00      	stdw [r10 - 0x58], 0x8
    2020: 7a 0a 98 ff 20 00 00 00      	stdw [r10 - 0x68], 0x20
    2028: 7a 0a 88 ff 20 00 00 00      	stdw [r10 - 0x78], 0x20
    2030: 7a 0a 78 ff 06 00 00 00      	stdw [r10 - 0x88], 0x6
    2038: 7b 9a e8 ff 00 00 00 00      	stxdw [r10 - 0x18], r9
    2040: 79 a6 58 fd 00 00 00 00      	ldxdw r6, [r10 - 0x2a8]
    2048: 7b 6a e0 ff 00 00 00 00      	stxdw [r10 - 0x20], r6
    2050: 7b 1a d8 ff 00 00 00 00      	stxdw [r10 - 0x28], r1
    2058: 79 a1 40 fd 00 00 00 00      	ldxdw r1, [r10 - 0x2c0]
    2060: 7b 1a d0 ff 00 00 00 00      	stxdw [r10 - 0x30], r1
    2068: bf a1 00 00 00 00 00 00      	mov64 r1, r10
    2070: 07 01 00 00 70 ff ff ff      	add64 r1, -0x90
    2078: 7b 1a c0 ff 00 00 00 00      	stxdw [r10 - 0x40], r1
    2080: 7a 0a c8 ff 05 00 00 00      	stdw [r10 - 0x38], 0x5
    2088: bf a1 00 00 00 00 00 00      	mov64 r1, r10
    2090: 07 01 00 00 78 fd ff ff      	add64 r1, -0x288
    2098: bf a2 00 00 00 00 00 00      	mov64 r2, r10
    20a0: 07 02 00 00 d0 ff ff ff      	add64 r2, -0x30
    20a8: bf a3 00 00 00 00 00 00      	mov64 r3, r10
    20b0: 07 03 00 00 c0 ff ff ff      	add64 r3, -0x40
    20b8: b7 04 00 00 01 00 00 00      	mov64 r4, 0x1
    20c0: 85 10 00 00 e4 06 00 00      	call 0x6e4
    20c8: 61 a8 7c fd 00 00 00 00      	ldxw r8, [r10 - 0x284]
    20d0: 61 a7 78 fd 00 00 00 00      	ldxw r7, [r10 - 0x288]
    20d8: 55 07 1e 00 1a 00 00 00      	jne r7, 0x1a, +0x1e <.text+0x20b0>
    20e0: 79 a1 60 fd 00 00 00 00      	ldxdw r1, [r10 - 0x2a0]
    20e8: 07 01 00 00 38 00 00 00      	add64 r1, 0x38
    20f0: 7b 9a e8 ff 00 00 00 00      	stxdw [r10 - 0x18], r9
    20f8: 7b 6a e0 ff 00 00 00 00      	stxdw [r10 - 0x20], r6
    2100: 7b 1a d8 ff 00 00 00 00      	stxdw [r10 - 0x28], r1
    2108: 79 a1 38 fd 00 00 00 00      	ldxdw r1, [r10 - 0x2c8]
    2110: 7b 1a d0 ff 00 00 00 00      	stxdw [r10 - 0x30], r1
    2118: 79 a1 c8 ff 00 00 00 00      	ldxdw r1, [r10 - 0x38]
    2120: 7b 1a f8 ff 00 00 00 00      	stxdw [r10 - 0x8], r1
    2128: 79 a1 c0 ff 00 00 00 00      	ldxdw r1, [r10 - 0x40]
    2130: 7b 1a f0 ff 00 00 00 00      	stxdw [r10 - 0x10], r1
    2138: bf a1 00 00 00 00 00 00      	mov64 r1, r10
    2140: 07 01 00 00 70 fd ff ff      	add64 r1, -0x290
    2148: bf a2 00 00 00 00 00 00      	mov64 r2, r10
    2150: 07 02 00 00 d0 ff ff ff      	add64 r2, -0x30
    2158: bf a3 00 00 00 00 00 00      	mov64 r3, r10
    2160: 07 03 00 00 f0 ff ff ff      	add64 r3, -0x10
    2168: b7 04 00 00 01 00 00 00      	mov64 r4, 0x1
    2170: 85 10 00 00 ce 06 00 00      	call 0x6ce
    2178: 61 a8 74 fd 00 00 00 00      	ldxw r8, [r10 - 0x28c]
    2180: 61 a7 70 fd 00 00 00 00      	ldxw r7, [r10 - 0x290]
    2188: 55 07 08 00 1a 00 00 00      	jne r7, 0x1a, +0x8 <.text+0x20b0>
    2190: b7 07 00 00 1a 00 00 00      	mov64 r7, 0x1a
    2198: 79 a1 68 fd 00 00 00 00      	ldxdw r1, [r10 - 0x298]
    21a0: 05 00 3b ff 00 00 00 00      	ja -0xc5 <.text+0x1a60>
    21a8: bf 17 00 00 00 00 00 00      	mov64 r7, r1
    21b0: 79 a1 68 fd 00 00 00 00      	ldxdw r1, [r10 - 0x298]
    21b8: 05 00 38 ff 00 00 00 00      	ja -0xc8 <.text+0x1a60>
    21c0: 85 10 00 00 eb fb ff ff      	call -0x415
    21c8: b7 08 00 00 01 00 00 00      	mov64 r8, 0x1
    21d0: 79 a1 68 fd 00 00 00 00      	ldxdw r1, [r10 - 0x298]
    21d8: 05 00 34 ff 00 00 00 00      	ja -0xcc <.text+0x1a60>
    21e0: b7 07 00 00 00 00 00 00      	mov64 r7, 0x0
    21e8: b7 08 00 00 00 00 00 00      	mov64 r8, 0x0
    21f0: 55 05 04 00 08 00 00 00      	jne r5, 0x8, +0x4 <.text+0x20f8>
    21f8: 79 49 00 00 00 00 00 00      	ldxdw r9, [r4 + 0x0]
    2200: 15 09 02 00 00 00 00 00      	jeq r9, 0x0, +0x2 <.text+0x20f8>
    2208: b7 08 00 00 0a 00 00 00      	mov64 r8, 0xa
    2210: 15 03 03 00 09 00 00 00      	jeq r3, 0x9, +0x3 <.text+0x2110>
    2218: 63 71 04 00 00 00 00 00      	stxw [r1 + 0x4], r7
    2220: 63 81 00 00 00 00 00 00      	stxw [r1 + 0x0], r8
    2228: 95 00 00 00 00 00 00 00      	exit
    2230: b7 08 00 00 07 00 00 00      	mov64 r8, 0x7
    2238: 79 23 00 00 00 00 00 00      	ldxdw r3, [r2 + 0x0]
    2240: 71 33 01 00 00 00 00 00      	ldxb r3, [r3 + 0x1]
    2248: 15 03 f9 ff 00 00 00 00      	jeq r3, 0x0, -0x7 <.text+0x20f8>
    2250: 7b 1a 78 fd 00 00 00 00      	stxdw [r10 - 0x288], r1
    2258: 7b 2a 70 fd 00 00 00 00      	stxdw [r10 - 0x290], r2
    2260: bf 26 00 00 00 00 00 00      	mov64 r6, r2
    2268: 07 06 00 00 08 00 00 00      	add64 r6, 0x8
    2270: 79 61 00 00 00 00 00 00      	ldxdw r1, [r6 + 0x0]
    2278: 07 01 00 00 28 00 00 00      	add64 r1, 0x28
    2280: 18 02 00 00 1e 67 00 00 00 00 00 00 00 00 00 00      	lddw r2, 0x671e
    2290: b7 03 00 00 20 00 00 00      	mov64 r3, 0x20
    2298: 85 10 00 00 82 08 00 00      	call 0x882
    22a0: b7 08 00 00 00 00 00 00      	mov64 r8, 0x0
    22a8: b7 07 00 00 01 00 00 00      	mov64 r7, 0x1
    22b0: 67 00 00 00 20 00 00 00      	lsh64 r0, 0x20
    22b8: 77 00 00 00 20 00 00 00      	rsh64 r0, 0x20
    22c0: 55 00 ad 00 00 00 00 00      	jne r0, 0x0, +0xad <.text+0x2710>
    22c8: bf a1 00 00 00 00 00 00      	mov64 r1, r10
    22d0: 07 01 00 00 80 ff ff ff      	add64 r1, -0x80
    22d8: 7b 6a 68 fd 00 00 00 00      	stxdw [r10 - 0x298], r6
    22e0: bf 62 00 00 00 00 00 00      	mov64 r2, r6
    22e8: 85 10 00 00 b1 07 00 00      	call 0x7b1
    22f0: 61 a1 8c ff 00 00 00 00      	ldxw r1, [r10 - 0x74]
    22f8: 61 a2 88 ff 00 00 00 00      	ldxw r2, [r10 - 0x78]
    2300: 79 a6 80 ff 00 00 00 00      	ldxdw r6, [r10 - 0x80]
    2308: 15 06 a6 00 00 00 00 00      	jeq r6, 0x0, +0xa6 <.text+0x2720>
    2310: 67 01 00 00 20 00 00 00      	lsh64 r1, 0x20
    2318: 4f 21 00 00 00 00 00 00      	or64 r1, r2
    2320: 71 a2 98 ff 00 00 00 00      	ldxb r2, [r10 - 0x68]
    2328: 79 a3 90 ff 00 00 00 00      	ldxdw r3, [r10 - 0x70]
    2330: 15 01 01 00 f8 00 00 00      	jeq r1, 0xf8, +0x1 <.text+0x2220>
    2338: 05 00 a4 00 00 00 00 00      	ja +0xa4 <.text+0x2740>
    2340: 61 61 00 00 00 00 00 00      	ldxw r1, [r6 + 0x0]
    2348: 7b 1a 58 fd 00 00 00 00      	stxdw [r10 - 0x2a8], r1
    2350: 7b 2a 40 fd 00 00 00 00      	stxdw [r10 - 0x2c0], r2
    2358: bf 62 00 00 00 00 00 00      	mov64 r2, r6
    2360: 07 02 00 00 04 00 00 00      	add64 r2, 0x4
    2368: bf a1 00 00 00 00 00 00      	mov64 r1, r10
    2370: 07 01 00 00 90 fe ff ff      	add64 r1, -0x170
    2378: 7b 1a 50 fd 00 00 00 00      	stxdw [r10 - 0x2b0], r1
    2380: 7b 3a 38 fd 00 00 00 00      	stxdw [r10 - 0x2c8], r3
    2388: b7 03 00 00 e4 00 00 00      	mov64 r3, 0xe4
    2390: 85 10 00 00 5f 08 00 00      	call 0x85f
    2398: 79 61 e8 00 00 00 00 00      	ldxdw r1, [r6 + 0xe8]
    23a0: 7b 1a 60 fd 00 00 00 00      	stxdw [r10 - 0x2a0], r1
    23a8: 79 61 f0 00 00 00 00 00      	ldxdw r1, [r6 + 0xf0]
    23b0: 7b 1a 48 fd 00 00 00 00      	stxdw [r10 - 0x2b8], r1
    23b8: 79 a1 38 fd 00 00 00 00      	ldxdw r1, [r10 - 0x2c8]
    23c0: 79 a2 40 fd 00 00 00 00      	ldxdw r2, [r10 - 0x2c0]
    23c8: 85 10 00 00 aa fb ff ff      	call -0x456
    23d0: 79 a6 58 fd 00 00 00 00      	ldxdw r6, [r10 - 0x2a8]
    23d8: 63 6a 98 fd 00 00 00 00      	stxw [r10 - 0x268], r6
    23e0: bf a1 00 00 00 00 00 00      	mov64 r1, r10
    23e8: 07 01 00 00 9c fd ff ff      	add64 r1, -0x264
    23f0: 79 a2 50 fd 00 00 00 00      	ldxdw r2, [r10 - 0x2b0]
    23f8: b7 03 00 00 e4 00 00 00      	mov64 r3, 0xe4
    2400: 85 10 00 00 51 08 00 00      	call 0x851
    2408: 79 a1 48 fd 00 00 00 00      	ldxdw r1, [r10 - 0x2b8]
    2410: 7b 1a 88 fe 00 00 00 00      	stxdw [r10 - 0x178], r1
    2418: 79 a1 60 fd 00 00 00 00      	ldxdw r1, [r10 - 0x2a0]
    2420: 7b 1a 80 fe 00 00 00 00      	stxdw [r10 - 0x180], r1
    2428: bf 61 00 00 00 00 00 00      	mov64 r1, r6
    2430: 77 01 00 00 08 00 00 00      	rsh64 r1, 0x8
    2438: 57 01 00 00 ff 00 00 00      	and64 r1, 0xff
    2440: bf 12 00 00 00 00 00 00      	mov64 r2, r1
    2448: 07 02 00 00 ff ff ff ff      	add64 r2, -0x1
    2450: a5 02 85 00 02 00 00 00      	jlt r2, 0x2, +0x85 <.text+0x2760>
    2458: 79 a2 68 fd 00 00 00 00      	ldxdw r2, [r10 - 0x298]
    2460: 15 01 02 00 00 00 00 00      	jeq r1, 0x0, +0x2 <.text+0x2358>
    2468: 15 01 01 00 03 00 00 00      	jeq r1, 0x3, +0x1 <.text+0x2358>
    2470: 05 00 77 00 00 00 00 00      	ja +0x77 <.text+0x2710>
    2478: 79 a1 70 fd 00 00 00 00      	ldxdw r1, [r10 - 0x290]
    2480: 07 01 00 00 18 00 00 00      	add64 r1, 0x18
    2488: 7b 1a 50 fd 00 00 00 00      	stxdw [r10 - 0x2b0], r1
    2490: 79 12 00 00 00 00 00 00      	ldxdw r2, [r1 + 0x0]
    2498: 07 02 00 00 08 00 00 00      	add64 r2, 0x8
    24a0: bf a1 00 00 00 00 00 00      	mov64 r1, r10
    24a8: 07 01 00 00 00 fe ff ff      	add64 r1, -0x200
    24b0: b7 03 00 00 20 00 00 00      	mov64 r3, 0x20
    24b8: 85 10 00 00 3e 08 00 00      	call 0x83e
    24c0: 67 00 00 00 20 00 00 00      	lsh64 r0, 0x20
    24c8: 77 00 00 00 20 00 00 00      	rsh64 r0, 0x20
    24d0: 55 00 6b 00 00 00 00 00      	jne r0, 0x0, +0x6b <.text+0x2710>
    24d8: 79 a1 70 fd 00 00 00 00      	ldxdw r1, [r10 - 0x290]
    24e0: 07 01 00 00 20 00 00 00      	add64 r1, 0x20
    24e8: 7b 1a 48 fd 00 00 00 00      	stxdw [r10 - 0x2b8], r1
    24f0: 79 12 00 00 00 00 00 00      	ldxdw r2, [r1 + 0x0]
    24f8: 07 02 00 00 08 00 00 00      	add64 r2, 0x8
    2500: bf a1 00 00 00 00 00 00      	mov64 r1, r10
    2508: 07 01 00 00 c0 fd ff ff      	add64 r1, -0x240
    2510: b7 03 00 00 20 00 00 00      	mov64 r3, 0x20
    2518: 85 10 00 00 32 08 00 00      	call 0x832
    2520: 67 00 00 00 20 00 00 00      	lsh64 r0, 0x20
    2528: 77 00 00 00 20 00 00 00      	rsh64 r0, 0x20
    2530: 55 00 5f 00 00 00 00 00      	jne r0, 0x0, +0x5f <.text+0x2710>
    2538: 79 a1 70 fd 00 00 00 00      	ldxdw r1, [r10 - 0x290]
    2540: 07 01 00 00 28 00 00 00      	add64 r1, 0x28
    2548: 7b 1a 40 fd 00 00 00 00      	stxdw [r10 - 0x2c0], r1
    2550: 79 12 00 00 00 00 00 00      	ldxdw r2, [r1 + 0x0]
    2558: 07 02 00 00 08 00 00 00      	add64 r2, 0x8
    2560: bf a1 00 00 00 00 00 00      	mov64 r1, r10
    2568: 07 01 00 00 e0 fd ff ff      	add64 r1, -0x220
    2570: b7 03 00 00 20 00 00 00      	mov64 r3, 0x20
    2578: 85 10 00 00 26 08 00 00      	call 0x826
    2580: 67 00 00 00 20 00 00 00      	lsh64 r0, 0x20
    2588: 77 00 00 00 20 00 00 00      	rsh64 r0, 0x20
    2590: 55 00 53 00 00 00 00 00      	jne r0, 0x0, +0x53 <.text+0x2710>
    2598: 79 a1 70 fd 00 00 00 00      	ldxdw r1, [r10 - 0x290]
    25a0: bf 12 00 00 00 00 00 00      	mov64 r2, r1
    25a8: 07 02 00 00 30 00 00 00      	add64 r2, 0x30
    25b0: 7b 9a 98 ff 00 00 00 00      	stxdw [r10 - 0x68], r9
    25b8: 7b 1a 90 ff 00 00 00 00      	stxdw [r10 - 0x70], r1
    25c0: 79 a1 48 fd 00 00 00 00      	ldxdw r1, [r10 - 0x2b8]
    25c8: 7b 1a 88 ff 00 00 00 00      	stxdw [r10 - 0x78], r1
    25d0: 7b 2a 80 ff 00 00 00 00      	stxdw [r10 - 0x80], r2
    25d8: bf a1 00 00 00 00 00 00      	mov64 r1, r10
    25e0: 07 01 00 00 90 fd ff ff      	add64 r1, -0x270
    25e8: bf a2 00 00 00 00 00 00      	mov64 r2, r10
    25f0: 07 02 00 00 80 ff ff ff      	add64 r2, -0x80
    25f8: b7 03 00 00 08 00 00 00      	mov64 r3, 0x8
    2600: b7 04 00 00 00 00 00 00      	mov64 r4, 0x0
    2608: 85 10 00 00 d2 04 00 00      	call 0x4d2
    2610: 61 a7 94 fd 00 00 00 00      	ldxw r7, [r10 - 0x26c]
    2618: 61 a8 90 fd 00 00 00 00      	ldxw r8, [r10 - 0x270]
    2620: 55 08 41 00 1a 00 00 00      	jne r8, 0x1a, +0x41 <.text+0x2710>
    2628: 79 a1 70 fd 00 00 00 00      	ldxdw r1, [r10 - 0x290]
    2630: bf 12 00 00 00 00 00 00      	mov64 r2, r1
    2638: 07 02 00 00 38 00 00 00      	add64 r2, 0x38
    2640: 7b 9a 98 ff 00 00 00 00      	stxdw [r10 - 0x68], r9
    2648: 7b 1a 90 ff 00 00 00 00      	stxdw [r10 - 0x70], r1
    2650: 79 a1 40 fd 00 00 00 00      	ldxdw r1, [r10 - 0x2c0]
    2658: 7b 1a 88 ff 00 00 00 00      	stxdw [r10 - 0x78], r1
    2660: 7b 2a 80 ff 00 00 00 00      	stxdw [r10 - 0x80], r2
    2668: bf a1 00 00 00 00 00 00      	mov64 r1, r10
    2670: 07 01 00 00 88 fd ff ff      	add64 r1, -0x278
    2678: bf a2 00 00 00 00 00 00      	mov64 r2, r10
    2680: 07 02 00 00 80 ff ff ff      	add64 r2, -0x80
    2688: b7 03 00 00 08 00 00 00      	mov64 r3, 0x8
    2690: b7 04 00 00 00 00 00 00      	mov64 r4, 0x0
    2698: 85 10 00 00 c0 04 00 00      	call 0x4c0
    26a0: 61 a7 8c fd 00 00 00 00      	ldxw r7, [r10 - 0x274]
    26a8: 61 a8 88 fd 00 00 00 00      	ldxw r8, [r10 - 0x278]
    26b0: 55 08 2f 00 1a 00 00 00      	jne r8, 0x1a, +0x2f <.text+0x2710>
    26b8: 79 a1 70 fd 00 00 00 00      	ldxdw r1, [r10 - 0x290]
    26c0: 07 01 00 00 10 00 00 00      	add64 r1, 0x10
    26c8: 73 6a 77 ff 00 00 00 00      	stxb [r10 - 0x89], r6
    26d0: 79 a2 60 fd 00 00 00 00      	ldxdw r2, [r10 - 0x2a0]
    26d8: 7b 2a 78 ff 00 00 00 00      	stxdw [r10 - 0x88], r2
    26e0: bf a2 00 00 00 00 00 00      	mov64 r2, r10
    26e8: 07 02 00 00 77 ff ff ff      	add64 r2, -0x89
    26f0: 7b 2a c0 ff 00 00 00 00      	stxdw [r10 - 0x40], r2
    26f8: bf a2 00 00 00 00 00 00      	mov64 r2, r10
    2700: 07 02 00 00 78 ff ff ff      	add64 r2, -0x88
    2708: 7b 2a b0 ff 00 00 00 00      	stxdw [r10 - 0x50], r2
    2710: bf a2 00 00 00 00 00 00      	mov64 r2, r10
    2718: 07 02 00 00 40 fe ff ff      	add64 r2, -0x1c0
    2720: 7b 2a a0 ff 00 00 00 00      	stxdw [r10 - 0x60], r2
    2728: bf a2 00 00 00 00 00 00      	mov64 r2, r10
    2730: 07 02 00 00 a0 fd ff ff      	add64 r2, -0x260
    2738: 7b 2a 90 ff 00 00 00 00      	stxdw [r10 - 0x70], r2
    2740: 18 02 00 00 18 67 00 00 00 00 00 00 00 00 00 00      	lddw r2, 0x6718
    2750: 7b 2a 80 ff 00 00 00 00      	stxdw [r10 - 0x80], r2
    2758: 7a 0a c8 ff 01 00 00 00      	stdw [r10 - 0x38], 0x1
    2760: 7a 0a b8 ff 08 00 00 00      	stdw [r10 - 0x48], 0x8
    2768: 7a 0a a8 ff 20 00 00 00      	stdw [r10 - 0x58], 0x20
    2770: 7a 0a 98 ff 20 00 00 00      	stdw [r10 - 0x68], 0x20
    2778: 7a 0a 88 ff 06 00 00 00      	stdw [r10 - 0x78], 0x6
    2780: 7b 9a e8 ff 00 00 00 00      	stxdw [r10 - 0x18], r9
    2788: 79 a2 68 fd 00 00 00 00      	ldxdw r2, [r10 - 0x298]
    2790: 7b 2a e0 ff 00 00 00 00      	stxdw [r10 - 0x20], r2
    2798: 7b 1a d8 ff 00 00 00 00      	stxdw [r10 - 0x28], r1
    27a0: 79 a1 50 fd 00 00 00 00      	ldxdw r1, [r10 - 0x2b0]
    27a8: 7b 1a d0 ff 00 00 00 00      	stxdw [r10 - 0x30], r1
    27b0: bf a1 00 00 00 00 00 00      	mov64 r1, r10
    27b8: 07 01 00 00 80 ff ff ff      	add64 r1, -0x80
    27c0: 7b 1a f0 ff 00 00 00 00      	stxdw [r10 - 0x10], r1
    27c8: 7a 0a f8 ff 05 00 00 00      	stdw [r10 - 0x8], 0x5
    27d0: bf a1 00 00 00 00 00 00      	mov64 r1, r10
    27d8: 07 01 00 00 80 fd ff ff      	add64 r1, -0x280
    27e0: bf a2 00 00 00 00 00 00      	mov64 r2, r10
    27e8: 07 02 00 00 d0 ff ff ff      	add64 r2, -0x30
    27f0: bf a3 00 00 00 00 00 00      	mov64 r3, r10
    27f8: 07 03 00 00 f0 ff ff ff      	add64 r3, -0x10
    2800: b7 04 00 00 01 00 00 00      	mov64 r4, 0x1
    2808: 85 10 00 00 28 06 00 00      	call 0x628
    2810: 61 a7 84 fd 00 00 00 00      	ldxw r7, [r10 - 0x27c]
    2818: 61 a8 80 fd 00 00 00 00      	ldxw r8, [r10 - 0x280]
    2820: 55 08 01 00 1a 00 00 00      	jne r8, 0x1a, +0x1 <.text+0x2710>
    2828: b7 08 00 00 1a 00 00 00      	mov64 r8, 0x1a
    2830: 79 a1 78 fd 00 00 00 00      	ldxdw r1, [r10 - 0x288]
    2838: 05 00 3b ff 00 00 00 00      	ja -0xc5 <.text+0x20f8>
    2840: bf 17 00 00 00 00 00 00      	mov64 r7, r1
    2848: bf 28 00 00 00 00 00 00      	mov64 r8, r2
    2850: 79 a1 78 fd 00 00 00 00      	ldxdw r1, [r10 - 0x288]
    2858: 05 00 37 ff 00 00 00 00      	ja -0xc9 <.text+0x20f8>
    2860: bf 31 00 00 00 00 00 00      	mov64 r1, r3
    2868: 85 10 00 00 16 fb ff ff      	call -0x4ea
    2870: 79 a1 78 fd 00 00 00 00      	ldxdw r1, [r10 - 0x288]
    2878: 05 00 33 ff 00 00 00 00      	ja -0xcd <.text+0x20f8>
    2880: b7 07 00 00 05 00 00 00      	mov64 r7, 0x5
    2888: 79 a1 78 fd 00 00 00 00      	ldxdw r1, [r10 - 0x288]
    2890: 05 00 30 ff 00 00 00 00      	ja -0xd0 <.text+0x20f8>
    2898: b7 08 00 00 00 00 00 00      	mov64 r8, 0x0
    28a0: b7 07 00 00 00 00 00 00      	mov64 r7, 0x0
    28a8: 55 05 04 00 08 00 00 00      	jne r5, 0x8, +0x4 <.text+0x27b0>
    28b0: 79 49 00 00 00 00 00 00      	ldxdw r9, [r4 + 0x0]
    28b8: 15 09 02 00 00 00 00 00      	jeq r9, 0x0, +0x2 <.text+0x27b0>
    28c0: b7 07 00 00 0a 00 00 00      	mov64 r7, 0xa
    28c8: 15 03 03 00 07 00 00 00      	jeq r3, 0x7, +0x3 <.text+0x27c8>
    28d0: 63 81 04 00 00 00 00 00      	stxw [r1 + 0x4], r8
    28d8: 63 71 00 00 00 00 00 00      	stxw [r1 + 0x0], r7
    28e0: 95 00 00 00 00 00 00 00      	exit
    28e8: b7 07 00 00 07 00 00 00      	mov64 r7, 0x7
    28f0: 79 23 00 00 00 00 00 00      	ldxdw r3, [r2 + 0x0]
    28f8: 71 33 01 00 00 00 00 00      	ldxb r3, [r3 + 0x1]
    2900: 15 03 f9 ff 00 00 00 00      	jeq r3, 0x0, -0x7 <.text+0x27b0>
    2908: 7b 1a 80 fd 00 00 00 00      	stxdw [r10 - 0x280], r1
    2910: 7b 2a 78 fd 00 00 00 00      	stxdw [r10 - 0x288], r2
    2918: bf 26 00 00 00 00 00 00      	mov64 r6, r2
    2920: 07 06 00 00 08 00 00 00      	add64 r6, 0x8
    2928: 79 61 00 00 00 00 00 00      	ldxdw r1, [r6 + 0x0]
    2930: 07 01 00 00 28 00 00 00      	add64 r1, 0x28
    2938: 18 02 00 00 1e 67 00 00 00 00 00 00 00 00 00 00      	lddw r2, 0x671e
    2948: b7 03 00 00 20 00 00 00      	mov64 r3, 0x20
    2950: 85 10 00 00 ab 07 00 00      	call 0x7ab
    2958: b7 07 00 00 00 00 00 00      	mov64 r7, 0x0
    2960: b7 08 00 00 01 00 00 00      	mov64 r8, 0x1
    2968: 67 00 00 00 20 00 00 00      	lsh64 r0, 0x20
    2970: 77 00 00 00 20 00 00 00      	rsh64 r0, 0x20
    2978: 55 00 a3 00 00 00 00 00      	jne r0, 0x0, +0xa3 <.text+0x2d78>
    2980: bf a1 00 00 00 00 00 00      	mov64 r1, r10
    2988: 07 01 00 00 80 ff ff ff      	add64 r1, -0x80
    2990: 7b 6a 70 fd 00 00 00 00      	stxdw [r10 - 0x290], r6
    2998: bf 62 00 00 00 00 00 00      	mov64 r2, r6
    29a0: 85 10 00 00 da 06 00 00      	call 0x6da
    29a8: 61 a1 8c ff 00 00 00 00      	ldxw r1, [r10 - 0x74]
    29b0: 61 a2 88 ff 00 00 00 00      	ldxw r2, [r10 - 0x78]
    29b8: 79 a6 80 ff 00 00 00 00      	ldxdw r6, [r10 - 0x80]
    29c0: 15 06 2d 00 00 00 00 00      	jeq r6, 0x0, +0x2d <.text+0x2a10>
    29c8: 67 01 00 00 20 00 00 00      	lsh64 r1, 0x20
    29d0: 4f 21 00 00 00 00 00 00      	or64 r1, r2
    29d8: 71 a2 98 ff 00 00 00 00      	ldxb r2, [r10 - 0x68]
    29e0: 79 a3 90 ff 00 00 00 00      	ldxdw r3, [r10 - 0x70]
    29e8: 15 01 01 00 f8 00 00 00      	jeq r1, 0xf8, +0x1 <.text+0x28d8>
    29f0: 05 00 2b 00 00 00 00 00      	ja +0x2b <.text+0x2a30>
    29f8: 61 61 00 00 00 00 00 00      	ldxw r1, [r6 + 0x0]
    2a00: 7b 1a 60 fd 00 00 00 00      	stxdw [r10 - 0x2a0], r1
    2a08: 7b 2a 48 fd 00 00 00 00      	stxdw [r10 - 0x2b8], r2
    2a10: bf 62 00 00 00 00 00 00      	mov64 r2, r6
    2a18: 07 02 00 00 04 00 00 00      	add64 r2, 0x4
    2a20: bf a1 00 00 00 00 00 00      	mov64 r1, r10
    2a28: 07 01 00 00 90 fe ff ff      	add64 r1, -0x170
    2a30: 7b 1a 58 fd 00 00 00 00      	stxdw [r10 - 0x2a8], r1
    2a38: 7b 3a 40 fd 00 00 00 00      	stxdw [r10 - 0x2c0], r3
    2a40: b7 03 00 00 e4 00 00 00      	mov64 r3, 0xe4
    2a48: 85 10 00 00 88 07 00 00      	call 0x788
    2a50: 79 61 e8 00 00 00 00 00      	ldxdw r1, [r6 + 0xe8]
    2a58: 7b 1a 68 fd 00 00 00 00      	stxdw [r10 - 0x298], r1
    2a60: 79 61 f0 00 00 00 00 00      	ldxdw r1, [r6 + 0xf0]
    2a68: 7b 1a 50 fd 00 00 00 00      	stxdw [r10 - 0x2b0], r1
    2a70: 79 a1 40 fd 00 00 00 00      	ldxdw r1, [r10 - 0x2c0]
    2a78: 79 a2 48 fd 00 00 00 00      	ldxdw r2, [r10 - 0x2b8]
    2a80: 85 10 00 00 d3 fa ff ff      	call -0x52d
    2a88: 79 a6 60 fd 00 00 00 00      	ldxdw r6, [r10 - 0x2a0]
    2a90: 63 6a 98 fd 00 00 00 00      	stxw [r10 - 0x268], r6
    2a98: bf a1 00 00 00 00 00 00      	mov64 r1, r10
    2aa0: 07 01 00 00 9c fd ff ff      	add64 r1, -0x264
    2aa8: 79 a2 58 fd 00 00 00 00      	ldxdw r2, [r10 - 0x2a8]
    2ab0: b7 03 00 00 e4 00 00 00      	mov64 r3, 0xe4
    2ab8: 85 10 00 00 7a 07 00 00      	call 0x77a
    2ac0: 79 a1 50 fd 00 00 00 00      	ldxdw r1, [r10 - 0x2b0]
    2ac8: 7b 1a 88 fe 00 00 00 00      	stxdw [r10 - 0x178], r1
    2ad0: 79 a1 68 fd 00 00 00 00      	ldxdw r1, [r10 - 0x298]
    2ad8: 7b 1a 80 fe 00 00 00 00      	stxdw [r10 - 0x180], r1
    2ae0: bf 62 00 00 00 00 00 00      	mov64 r2, r6
    2ae8: 77 02 00 00 08 00 00 00      	rsh64 r2, 0x8
    2af0: 57 02 00 00 ff 00 00 00      	and64 r2, 0xff
    2af8: 65 02 0e 00 01 00 00 00      	jsgt r2, 0x1, +0xe <.text+0x2a50>
    2b00: 79 a1 70 fd 00 00 00 00      	ldxdw r1, [r10 - 0x290]
    2b08: 15 02 13 00 00 00 00 00      	jeq r2, 0x0, +0x13 <.text+0x2a88>
    2b10: bf a1 00 00 00 00 00 00      	mov64 r1, r10
    2b18: 07 01 00 00 c0 fd ff ff      	add64 r1, -0x240
    2b20: 15 02 15 00 01 00 00 00      	jeq r2, 0x1, +0x15 <.text+0x2ab0>
    2b28: 05 00 6d 00 00 00 00 00      	ja +0x6d <.text+0x2d78>
    2b30: bf 18 00 00 00 00 00 00      	mov64 r8, r1
    2b38: bf 27 00 00 00 00 00 00      	mov64 r7, r2
    2b40: 79 a1 80 fd 00 00 00 00      	ldxdw r1, [r10 - 0x280]
    2b48: 05 00 b0 ff 00 00 00 00      	ja -0x50 <.text+0x27b0>
    2b50: bf 31 00 00 00 00 00 00      	mov64 r1, r3
    2b58: 85 10 00 00 b8 fa ff ff      	call -0x548
    2b60: 79 a1 80 fd 00 00 00 00      	ldxdw r1, [r10 - 0x280]
    2b68: 05 00 ac ff 00 00 00 00      	ja -0x54 <.text+0x27b0>
    2b70: 79 a1 70 fd 00 00 00 00      	ldxdw r1, [r10 - 0x290]
    2b78: 15 02 08 00 02 00 00 00      	jeq r2, 0x2, +0x8 <.text+0x2aa0>
    2b80: 15 02 01 00 03 00 00 00      	jeq r2, 0x3, +0x1 <.text+0x2a70>
    2b88: 05 00 61 00 00 00 00 00      	ja +0x61 <.text+0x2d78>
    2b90: b7 08 00 00 06 00 00 00      	mov64 r8, 0x6
    2b98: 79 a1 80 fd 00 00 00 00      	ldxdw r1, [r10 - 0x280]
    2ba0: 05 00 a5 ff 00 00 00 00      	ja -0x5b <.text+0x27b0>
    2ba8: b7 08 00 00 04 00 00 00      	mov64 r8, 0x4
    2bb0: 79 a1 80 fd 00 00 00 00      	ldxdw r1, [r10 - 0x280]
    2bb8: 05 00 a2 ff 00 00 00 00      	ja -0x5e <.text+0x27b0>
    2bc0: bf a1 00 00 00 00 00 00      	mov64 r1, r10
    2bc8: 07 01 00 00 e0 fd ff ff      	add64 r1, -0x220
    2bd0: 79 a2 78 fd 00 00 00 00      	ldxdw r2, [r10 - 0x288]
    2bd8: 07 02 00 00 20 00 00 00      	add64 r2, 0x20
    2be0: 7b 2a 58 fd 00 00 00 00      	stxdw [r10 - 0x2a8], r2
    2be8: 79 22 00 00 00 00 00 00      	ldxdw r2, [r2 + 0x0]
    2bf0: 07 02 00 00 08 00 00 00      	add64 r2, 0x8
    2bf8: b7 03 00 00 20 00 00 00      	mov64 r3, 0x20
    2c00: 85 10 00 00 55 07 00 00      	call 0x755
    2c08: b7 08 00 00 08 00 00 00      	mov64 r8, 0x8
    2c10: 67 00 00 00 20 00 00 00      	lsh64 r0, 0x20
    2c18: 77 00 00 00 20 00 00 00      	rsh64 r0, 0x20
    2c20: 55 00 4e 00 00 00 00 00      	jne r0, 0x0, +0x4e <.text+0x2d78>
    2c28: 79 a1 78 fd 00 00 00 00      	ldxdw r1, [r10 - 0x288]
    2c30: 07 01 00 00 18 00 00 00      	add64 r1, 0x18
    2c38: 7b 1a 50 fd 00 00 00 00      	stxdw [r10 - 0x2b0], r1
    2c40: 79 12 00 00 00 00 00 00      	ldxdw r2, [r1 + 0x0]
    2c48: 07 02 00 00 08 00 00 00      	add64 r2, 0x8
    2c50: bf a1 00 00 00 00 00 00      	mov64 r1, r10
    2c58: 07 01 00 00 00 fe ff ff      	add64 r1, -0x200
    2c60: b7 03 00 00 20 00 00 00      	mov64 r3, 0x20
    2c68: 85 10 00 00 48 07 00 00      	call 0x748
    2c70: b7 08 00 00 09 00 00 00      	mov64 r8, 0x9
    2c78: 67 00 00 00 20 00 00 00      	lsh64 r0, 0x20
    2c80: 77 00 00 00 20 00 00 00      	rsh64 r0, 0x20
    2c88: 55 00 41 00 00 00 00 00      	jne r0, 0x0, +0x41 <.text+0x2d78>
    2c90: 79 a1 78 fd 00 00 00 00      	ldxdw r1, [r10 - 0x288]
    2c98: bf 12 00 00 00 00 00 00      	mov64 r2, r1
    2ca0: 07 02 00 00 28 00 00 00      	add64 r2, 0x28
    2ca8: 7b 9a 98 ff 00 00 00 00      	stxdw [r10 - 0x68], r9
    2cb0: 7b 1a 90 ff 00 00 00 00      	stxdw [r10 - 0x70], r1
    2cb8: 79 a1 58 fd 00 00 00 00      	ldxdw r1, [r10 - 0x2a8]
    2cc0: 7b 1a 88 ff 00 00 00 00      	stxdw [r10 - 0x78], r1
    2cc8: 7b 2a 80 ff 00 00 00 00      	stxdw [r10 - 0x80], r2
    2cd0: bf a1 00 00 00 00 00 00      	mov64 r1, r10
    2cd8: 07 01 00 00 90 fd ff ff      	add64 r1, -0x270
    2ce0: bf a2 00 00 00 00 00 00      	mov64 r2, r10
    2ce8: 07 02 00 00 80 ff ff ff      	add64 r2, -0x80
    2cf0: b7 03 00 00 08 00 00 00      	mov64 r3, 0x8
    2cf8: b7 04 00 00 00 00 00 00      	mov64 r4, 0x0
    2d00: 85 10 00 00 f3 03 00 00      	call 0x3f3
    2d08: 61 a8 94 fd 00 00 00 00      	ldxw r8, [r10 - 0x26c]
    2d10: 61 a7 90 fd 00 00 00 00      	ldxw r7, [r10 - 0x270]
    2d18: 55 07 2f 00 1a 00 00 00      	jne r7, 0x1a, +0x2f <.text+0x2d78>
    2d20: 79 a1 78 fd 00 00 00 00      	ldxdw r1, [r10 - 0x288]
    2d28: 07 01 00 00 10 00 00 00      	add64 r1, 0x10
    2d30: 73 6a 77 ff 00 00 00 00      	stxb [r10 - 0x89], r6
    2d38: 79 a2 68 fd 00 00 00 00      	ldxdw r2, [r10 - 0x298]
    2d40: 7b 2a 78 ff 00 00 00 00      	stxdw [r10 - 0x88], r2
    2d48: bf a2 00 00 00 00 00 00      	mov64 r2, r10
    2d50: 07 02 00 00 77 ff ff ff      	add64 r2, -0x89
    2d58: 7b 2a c0 ff 00 00 00 00      	stxdw [r10 - 0x40], r2
    2d60: bf a2 00 00 00 00 00 00      	mov64 r2, r10
    2d68: 07 02 00 00 78 ff ff ff      	add64 r2, -0x88
    2d70: 7b 2a b0 ff 00 00 00 00      	stxdw [r10 - 0x50], r2
    2d78: bf a2 00 00 00 00 00 00      	mov64 r2, r10
    2d80: 07 02 00 00 40 fe ff ff      	add64 r2, -0x1c0
    2d88: 7b 2a a0 ff 00 00 00 00      	stxdw [r10 - 0x60], r2
    2d90: bf a2 00 00 00 00 00 00      	mov64 r2, r10
    2d98: 07 02 00 00 a0 fd ff ff      	add64 r2, -0x260
    2da0: 7b 2a 90 ff 00 00 00 00      	stxdw [r10 - 0x70], r2
    2da8: 18 02 00 00 18 67 00 00 00 00 00 00 00 00 00 00      	lddw r2, 0x6718
    2db8: 7b 2a 80 ff 00 00 00 00      	stxdw [r10 - 0x80], r2
    2dc0: 7a 0a c8 ff 01 00 00 00      	stdw [r10 - 0x38], 0x1
    2dc8: 7a 0a b8 ff 08 00 00 00      	stdw [r10 - 0x48], 0x8
    2dd0: 7a 0a a8 ff 20 00 00 00      	stdw [r10 - 0x58], 0x20
    2dd8: 7a 0a 98 ff 20 00 00 00      	stdw [r10 - 0x68], 0x20
    2de0: 7a 0a 88 ff 06 00 00 00      	stdw [r10 - 0x78], 0x6
    2de8: 7b 9a e8 ff 00 00 00 00      	stxdw [r10 - 0x18], r9
    2df0: 79 a2 70 fd 00 00 00 00      	ldxdw r2, [r10 - 0x290]
    2df8: 7b 2a e0 ff 00 00 00 00      	stxdw [r10 - 0x20], r2
    2e00: 7b 1a d8 ff 00 00 00 00      	stxdw [r10 - 0x28], r1
    2e08: 79 a1 50 fd 00 00 00 00      	ldxdw r1, [r10 - 0x2b0]
    2e10: 7b 1a d0 ff 00 00 00 00      	stxdw [r10 - 0x30], r1
    2e18: bf a1 00 00 00 00 00 00      	mov64 r1, r10
    2e20: 07 01 00 00 80 ff ff ff      	add64 r1, -0x80
    2e28: 7b 1a f0 ff 00 00 00 00      	stxdw [r10 - 0x10], r1
    2e30: 7a 0a f8 ff 05 00 00 00      	stdw [r10 - 0x8], 0x5
    2e38: bf a1 00 00 00 00 00 00      	mov64 r1, r10
    2e40: 07 01 00 00 88 fd ff ff      	add64 r1, -0x278
    2e48: bf a2 00 00 00 00 00 00      	mov64 r2, r10
    2e50: 07 02 00 00 d0 ff ff ff      	add64 r2, -0x30
    2e58: bf a3 00 00 00 00 00 00      	mov64 r3, r10
    2e60: 07 03 00 00 f0 ff ff ff      	add64 r3, -0x10
    2e68: b7 04 00 00 01 00 00 00      	mov64 r4, 0x1
    2e70: 85 10 00 00 5b 05 00 00      	call 0x55b
    2e78: 61 a8 8c fd 00 00 00 00      	ldxw r8, [r10 - 0x274]
    2e80: 61 a7 88 fd 00 00 00 00      	ldxw r7, [r10 - 0x278]
    2e88: 55 07 01 00 1a 00 00 00      	jne r7, 0x1a, +0x1 <.text+0x2d78>
    2e90: b7 07 00 00 1a 00 00 00      	mov64 r7, 0x1a
    2e98: 79 a1 80 fd 00 00 00 00      	ldxdw r1, [r10 - 0x280]
    2ea0: 05 00 45 ff 00 00 00 00      	ja -0xbb <.text+0x27b0>
    2ea8: b7 00 00 00 0a 00 00 00      	mov64 r0, 0xa
    2eb0: a5 03 08 00 04 00 00 00      	jlt r3, 0x4, +0x8 <.text+0x2dd8>
    2eb8: b7 00 00 00 07 00 00 00      	mov64 r0, 0x7
    2ec0: 79 24 00 00 00 00 00 00      	ldxdw r4, [r2 + 0x0]
    2ec8: 71 44 01 00 00 00 00 00      	ldxb r4, [r4 + 0x1]
    2ed0: 15 04 04 00 00 00 00 00      	jeq r4, 0x0, +0x4 <.text+0x2dd8>
    2ed8: bf 36 00 00 00 00 00 00      	mov64 r6, r3
    2ee0: 07 06 00 00 fd ff ff ff      	add64 r6, -0x3
    2ee8: b7 00 00 00 01 00 00 00      	mov64 r0, 0x1
    2ef0: a5 06 03 00 07 00 00 00      	jlt r6, 0x7, +0x3 <.text+0x2df0>
    2ef8: 63 91 04 00 00 00 00 00      	stxw [r1 + 0x4], r9
    2f00: 63 01 00 00 00 00 00 00      	stxw [r1 + 0x0], r0
    2f08: 95 00 00 00 00 00 00 00      	exit
    2f10: 7b 3a d8 f5 00 00 00 00      	stxdw [r10 - 0xa28], r3
    2f18: 7b 1a e8 f5 00 00 00 00      	stxdw [r10 - 0xa18], r1
    2f20: 7b 2a e0 f5 00 00 00 00      	stxdw [r10 - 0xa20], r2
    2f28: bf 27 00 00 00 00 00 00      	mov64 r7, r2
    2f30: 07 07 00 00 08 00 00 00      	add64 r7, 0x8
    2f38: 79 71 00 00 00 00 00 00      	ldxdw r1, [r7 + 0x0]
    2f40: 7b 1a d0 f5 00 00 00 00      	stxdw [r10 - 0xa30], r1
    2f48: 07 01 00 00 28 00 00 00      	add64 r1, 0x28
    2f50: 18 02 00 00 1e 67 00 00 00 00 00 00 00 00 00 00      	lddw r2, 0x671e
    2f60: b7 03 00 00 20 00 00 00      	mov64 r3, 0x20
    2f68: 85 10 00 00 e8 06 00 00      	call 0x6e8
    2f70: bf 01 00 00 00 00 00 00      	mov64 r1, r0
    2f78: b7 09 00 00 01 00 00 00      	mov64 r9, 0x1
    2f80: 67 01 00 00 20 00 00 00      	lsh64 r1, 0x20
    2f88: 77 01 00 00 20 00 00 00      	rsh64 r1, 0x20
    2f90: b7 00 00 00 00 00 00 00      	mov64 r0, 0x0
    2f98: 55 01 13 00 00 00 00 00      	jne r1, 0x0, +0x13 <.text+0x2f18>
    2fa0: bf a1 00 00 00 00 00 00      	mov64 r1, r10
    2fa8: 07 01 00 00 d0 fb ff ff      	add64 r1, -0x430
    2fb0: bf 72 00 00 00 00 00 00      	mov64 r2, r7
    2fb8: 85 10 00 00 17 06 00 00      	call 0x617
    2fc0: 61 a1 dc fb 00 00 00 00      	ldxw r1, [r10 - 0x424]
    2fc8: 61 a0 d8 fb 00 00 00 00      	ldxw r0, [r10 - 0x428]
    2fd0: 79 a7 d0 fb 00 00 00 00      	ldxdw r7, [r10 - 0x430]
    2fd8: 15 07 0a 00 00 00 00 00      	jeq r7, 0x0, +0xa <.text+0x2f10>
    2fe0: 67 01 00 00 20 00 00 00      	lsh64 r1, 0x20
    2fe8: 4f 01 00 00 00 00 00 00      	or64 r1, r0
    2ff0: 71 a2 e8 fb 00 00 00 00      	ldxb r2, [r10 - 0x418]
    2ff8: 79 a8 e0 fb 00 00 00 00      	ldxdw r8, [r10 - 0x420]
    3000: 15 01 08 00 f8 00 00 00      	jeq r1, 0xf8, +0x8 <.text+0x2f28>
    3008: bf 81 00 00 00 00 00 00      	mov64 r1, r8
    3010: 85 10 00 00 21 fa ff ff      	call -0x5df
    3018: b7 00 00 00 00 00 00 00      	mov64 r0, 0x0
    3020: 79 a1 e8 f5 00 00 00 00      	ldxdw r1, [r10 - 0xa18]
    3028: 05 00 d9 ff 00 00 00 00      	ja -0x27 <.text+0x2dd8>
    3030: bf 19 00 00 00 00 00 00      	mov64 r9, r1
    3038: 79 a1 e8 f5 00 00 00 00      	ldxdw r1, [r10 - 0xa18]
    3040: 05 00 d6 ff 00 00 00 00      	ja -0x2a <.text+0x2dd8>
    3048: 61 71 00 00 00 00 00 00      	ldxw r1, [r7 + 0x0]
    3050: 7b 1a c8 f5 00 00 00 00      	stxdw [r10 - 0xa38], r1
    3058: bf 29 00 00 00 00 00 00      	mov64 r9, r2
    3060: bf 72 00 00 00 00 00 00      	mov64 r2, r7
    3068: 07 02 00 00 04 00 00 00      	add64 r2, 0x4
    3070: bf a1 00 00 00 00 00 00      	mov64 r1, r10
    3078: 07 01 00 00 f4 f5 ff ff      	add64 r1, -0xa0c
    3080: b7 03 00 00 e4 00 00 00      	mov64 r3, 0xe4
    3088: 85 10 00 00 c0 06 00 00      	call 0x6c0
    3090: 79 71 e8 00 00 00 00 00      	ldxdw r1, [r7 + 0xe8]
    3098: 7b 1a c0 f5 00 00 00 00      	stxdw [r10 - 0xa40], r1
    30a0: bf 81 00 00 00 00 00 00      	mov64 r1, r8
    30a8: bf 92 00 00 00 00 00 00      	mov64 r2, r9
    30b0: 85 10 00 00 0d fa ff ff      	call -0x5f3
    30b8: b7 09 00 00 05 00 00 00      	mov64 r9, 0x5
    30c0: 79 a1 c8 f5 00 00 00 00      	ldxdw r1, [r10 - 0xa38]
    30c8: 57 01 00 00 00 ff 00 00      	and64 r1, 0xff00
    30d0: b7 00 00 00 00 00 00 00      	mov64 r0, 0x0
    30d8: 55 01 eb ff 00 00 00 00      	jne r1, 0x0, -0x15 <.text+0x2f18>
    30e0: 79 a1 e0 f5 00 00 00 00      	ldxdw r1, [r10 - 0xa20]
    30e8: 79 12 10 00 00 00 00 00      	ldxdw r2, [r1 + 0x10]
    30f0: 07 02 00 00 08 00 00 00      	add64 r2, 0x8
    30f8: bf a1 00 00 00 00 00 00      	mov64 r1, r10
    3100: 07 01 00 00 78 f6 ff ff      	add64 r1, -0x988
    3108: 7b 2a c8 f5 00 00 00 00      	stxdw [r10 - 0xa38], r2
    3110: b7 03 00 00 20 00 00 00      	mov64 r3, 0x20
    3118: 85 10 00 00 b2 06 00 00      	call 0x6b2
    3120: bf 01 00 00 00 00 00 00      	mov64 r1, r0
    3128: b7 09 00 00 0a 00 00 00      	mov64 r9, 0xa
    3130: 67 01 00 00 20 00 00 00      	lsh64 r1, 0x20
    3138: 77 01 00 00 20 00 00 00      	rsh64 r1, 0x20
    3140: b7 00 00 00 00 00 00 00      	mov64 r0, 0x0
    3148: 55 01 dd ff 00 00 00 00      	jne r1, 0x0, -0x23 <.text+0x2f18>
    3150: 79 a7 e0 f5 00 00 00 00      	ldxdw r7, [r10 - 0xa20]
    3158: 07 07 00 00 18 00 00 00      	add64 r7, 0x18
    3160: 79 78 00 00 00 00 00 00      	ldxdw r8, [r7 + 0x0]
    3168: 07 08 00 00 08 00 00 00      	add64 r8, 0x8
    3170: bf a1 00 00 00 00 00 00      	mov64 r1, r10
    3178: 07 01 00 00 98 f6 ff ff      	add64 r1, -0x968
    3180: bf 82 00 00 00 00 00 00      	mov64 r2, r8
    3188: b7 03 00 00 20 00 00 00      	mov64 r3, 0x20
    3190: 85 10 00 00 a3 06 00 00      	call 0x6a3
    3198: bf 01 00 00 00 00 00 00      	mov64 r1, r0
    31a0: 67 01 00 00 20 00 00 00      	lsh64 r1, 0x20
    31a8: 77 01 00 00 20 00 00 00      	rsh64 r1, 0x20
    31b0: b7 00 00 00 00 00 00 00      	mov64 r0, 0x0
    31b8: 55 01 cf ff 00 00 00 00      	jne r1, 0x0, -0x31 <.text+0x2f18>
    31c0: bf a1 00 00 00 00 00 00      	mov64 r1, r10
    31c8: 07 01 00 00 d0 fb ff ff      	add64 r1, -0x430
    31d0: 85 10 00 00 54 06 00 00      	call 0x654
    31d8: 61 a9 d8 fb 00 00 00 00      	ldxw r9, [r10 - 0x428]
    31e0: 61 a0 d4 fb 00 00 00 00      	ldxw r0, [r10 - 0x42c]
    31e8: 61 a1 d0 fb 00 00 00 00      	ldxw r1, [r10 - 0x430]
    31f0: 55 01 c8 ff 00 00 00 00      	jne r1, 0x0, -0x38 <.text+0x2f18>
    31f8: 79 a1 d8 fb 00 00 00 00      	ldxdw r1, [r10 - 0x428]
    3200: b7 09 00 00 0b 00 00 00      	mov64 r9, 0xb
    3208: b7 00 00 00 00 00 00 00      	mov64 r0, 0x0
    3210: 79 a2 c0 f5 00 00 00 00      	ldxdw r2, [r10 - 0xa40]
    3218: ad 21 c3 ff 00 00 00 00      	jlt r1, r2, -0x3d <.text+0x2f18>
    3220: 7b 8a e8 f6 00 00 00 00      	stxdw [r10 - 0x918], r8
    3228: 7b 7a 48 f7 00 00 00 00      	stxdw [r10 - 0x8b8], r7
    3230: 6a 0a f0 f6 00 00 00 00      	sth [r10 - 0x910], 0x0
    3238: 79 a1 e0 f5 00 00 00 00      	ldxdw r1, [r10 - 0xa20]
    3240: 79 a2 d8 f5 00 00 00 00      	ldxdw r2, [r10 - 0xa28]
    3248: 55 02 37 00 04 00 00 00      	jne r2, 0x4, +0x37 <.text+0x32e8>
    3250: 72 0a 7f f7 00 00 00 00      	stb [r10 - 0x881], 0x0
    3258: bf a1 00 00 00 00 00 00      	mov64 r1, r10
    3260: 07 01 00 00 e8 f6 ff ff      	add64 r1, -0x918
    3268: 7b 1a 98 f7 00 00 00 00      	stxdw [r10 - 0x868], r1
    3270: bf a1 00 00 00 00 00 00      	mov64 r1, r10
    3278: 07 01 00 00 7f f7 ff ff      	add64 r1, -0x881
    3280: 7b 1a 88 f7 00 00 00 00      	stxdw [r10 - 0x878], r1
    3288: 79 a7 c8 f5 00 00 00 00      	ldxdw r7, [r10 - 0xa38]
    3290: 7b 7a 80 f7 00 00 00 00      	stxdw [r10 - 0x880], r7
    3298: 7b 6a a0 f7 00 00 00 00      	stxdw [r10 - 0x860], r6
    32a0: 7a 0a 90 f7 01 00 00 00      	stdw [r10 - 0x870], 0x1
    32a8: bf a1 00 00 00 00 00 00      	mov64 r1, r10
    32b0: 07 01 00 00 80 f7 ff ff      	add64 r1, -0x880
    32b8: bf a2 00 00 00 00 00 00      	mov64 r2, r10
    32c0: 07 02 00 00 48 f7 ff ff      	add64 r2, -0x8b8
    32c8: bf 63 00 00 00 00 00 00      	mov64 r3, r6
    32d0: 85 10 00 00 fe f9 ff ff      	call -0x602
    32d8: bf 01 00 00 00 00 00 00      	mov64 r1, r0
    32e0: 67 01 00 00 20 00 00 00      	lsh64 r1, 0x20
    32e8: 77 01 00 00 20 00 00 00      	rsh64 r1, 0x20
    32f0: 55 01 a8 ff 1a 00 00 00      	jne r1, 0x1a, -0x58 <.text+0x2f18>
    32f8: bf a1 00 00 00 00 00 00      	mov64 r1, r10
    3300: 07 01 00 00 d0 fb ff ff      	add64 r1, -0x430
    3308: 85 10 00 00 d3 f9 ff ff      	call -0x62d
    3310: 79 a1 d0 fb 00 00 00 00      	ldxdw r1, [r10 - 0x430]
    3318: 55 01 44 00 01 00 00 00      	jne r1, 0x1, +0x44 <.text+0x3420>
    3320: bf a1 00 00 00 00 00 00      	mov64 r1, r10
    3328: 07 01 00 00 a8 f7 ff ff      	add64 r1, -0x858
    3330: bf a2 00 00 00 00 00 00      	mov64 r2, r10
    3338: 07 02 00 00 d8 fb ff ff      	add64 r2, -0x428
    3340: b7 03 00 00 20 04 00 00      	mov64 r3, 0x420
    3348: 85 10 00 00 68 06 00 00      	call 0x668
    3350: 79 a6 f8 ff 00 00 00 00      	ldxdw r6, [r10 - 0x8]
    3358: bf a1 00 00 00 00 00 00      	mov64 r1, r10
    3360: 07 01 00 00 a8 fb ff ff      	add64 r1, -0x458
    3368: bf 72 00 00 00 00 00 00      	mov64 r2, r7
    3370: b7 03 00 00 20 00 00 00      	mov64 r3, 0x20
    3378: 85 10 00 00 66 06 00 00      	call 0x666
    3380: bf 01 00 00 00 00 00 00      	mov64 r1, r0
    3388: b7 00 00 00 00 00 00 00      	mov64 r0, 0x0
    3390: 67 01 00 00 20 00 00 00      	lsh64 r1, 0x20
    3398: 77 01 00 00 20 00 00 00      	rsh64 r1, 0x20
    33a0: b7 09 00 00 0a 00 00 00      	mov64 r9, 0xa
    33a8: 55 01 91 ff 00 00 00 00      	jne r1, 0x0, -0x6f <.text+0x2f18>
    33b0: 15 06 01 00 01 00 00 00      	jeq r6, 0x1, +0x1 <.text+0x32a0>
    33b8: 05 00 8f ff 00 00 00 00      	ja -0x71 <.text+0x2f18>
    33c0: 71 a1 a8 f7 00 00 00 00      	ldxb r1, [r10 - 0x858]
    33c8: bf 12 00 00 00 00 00 00      	mov64 r2, r1
    33d0: 07 02 00 00 ff ff ff ff      	add64 r2, -0x1
    33d8: a5 02 30 00 03 00 00 00      	jlt r2, 0x3, +0x30 <.text+0x3440>
    33e0: b7 09 00 00 0b 00 00 00      	mov64 r9, 0xb
    33e8: 15 01 89 ff 00 00 00 00      	jeq r1, 0x0, -0x77 <.text+0x2f18>
    33f0: b7 09 00 00 0a 00 00 00      	mov64 r9, 0xa
    33f8: 79 a1 e8 f5 00 00 00 00      	ldxdw r1, [r10 - 0xa18]
    3400: 05 00 5e ff 00 00 00 00      	ja -0xa2 <.text+0x2dd8>
    3408: 79 13 20 00 00 00 00 00      	ldxdw r3, [r1 + 0x20]
    3410: bf 14 00 00 00 00 00 00      	mov64 r4, r1
    3418: 07 04 00 00 20 00 00 00      	add64 r4, 0x20
    3420: 7b 4a 50 f7 00 00 00 00      	stxdw [r10 - 0x8b0], r4
    3428: 07 03 00 00 08 00 00 00      	add64 r3, 0x8
    3430: 7b 3a f8 f6 00 00 00 00      	stxdw [r10 - 0x908], r3
    3438: 6a 0a 00 f7 00 00 00 00      	sth [r10 - 0x900], 0x0
    3440: 15 02 c1 ff 05 00 00 00      	jeq r2, 0x5, -0x3f <.text+0x3130>
    3448: 79 13 28 00 00 00 00 00      	ldxdw r3, [r1 + 0x28]
    3450: bf 14 00 00 00 00 00 00      	mov64 r4, r1
    3458: 07 04 00 00 28 00 00 00      	add64 r4, 0x28
    3460: 7b 4a 58 f7 00 00 00 00      	stxdw [r10 - 0x8a8], r4
    3468: 07 03 00 00 08 00 00 00      	add64 r3, 0x8
    3470: 7b 3a 08 f7 00 00 00 00      	stxdw [r10 - 0x8f8], r3
    3478: 6a 0a 10 f7 00 00 00 00      	sth [r10 - 0x8f0], 0x0
    3480: 15 02 b9 ff 06 00 00 00      	jeq r2, 0x6, -0x47 <.text+0x3130>
    3488: 79 13 30 00 00 00 00 00      	ldxdw r3, [r1 + 0x30]
    3490: bf 14 00 00 00 00 00 00      	mov64 r4, r1
    3498: 07 04 00 00 30 00 00 00      	add64 r4, 0x30
    34a0: 7b 4a 60 f7 00 00 00 00      	stxdw [r10 - 0x8a0], r4
    34a8: 07 03 00 00 08 00 00 00      	add64 r3, 0x8
    34b0: 7b 3a 18 f7 00 00 00 00      	stxdw [r10 - 0x8e8], r3
    34b8: 6a 0a 20 f7 00 00 00 00      	sth [r10 - 0x8e0], 0x0
    34c0: 15 02 b1 ff 07 00 00 00      	jeq r2, 0x7, -0x4f <.text+0x3130>
    34c8: 79 13 38 00 00 00 00 00      	ldxdw r3, [r1 + 0x38]
    34d0: bf 14 00 00 00 00 00 00      	mov64 r4, r1
    34d8: 07 04 00 00 38 00 00 00      	add64 r4, 0x38
    34e0: 7b 4a 68 f7 00 00 00 00      	stxdw [r10 - 0x898], r4
    34e8: 07 03 00 00 08 00 00 00      	add64 r3, 0x8
    34f0: 7b 3a 28 f7 00 00 00 00      	stxdw [r10 - 0x8d8], r3
    34f8: 6a 0a 30 f7 00 00 00 00      	sth [r10 - 0x8d0], 0x0
    3500: 15 02 a9 ff 08 00 00 00      	jeq r2, 0x8, -0x57 <.text+0x3130>
    3508: 79 12 40 00 00 00 00 00      	ldxdw r2, [r1 + 0x40]
    3510: 07 01 00 00 40 00 00 00      	add64 r1, 0x40
    3518: 7b 1a 70 f7 00 00 00 00      	stxdw [r10 - 0x890], r1
    3520: 07 02 00 00 08 00 00 00      	add64 r2, 0x8
    3528: 7b 2a 38 f7 00 00 00 00      	stxdw [r10 - 0x8c8], r2
    3530: 6a 0a 40 f7 00 00 00 00      	sth [r10 - 0x8c0], 0x0
    3538: 05 00 a2 ff 00 00 00 00      	ja -0x5e <.text+0x3130>
    3540: b7 00 00 00 00 00 00 00      	mov64 r0, 0x0
    3548: b7 09 00 00 0a 00 00 00      	mov64 r9, 0xa
    3550: 79 a1 e8 f5 00 00 00 00      	ldxdw r1, [r10 - 0xa18]
    3558: 05 00 33 ff 00 00 00 00      	ja -0xcd <.text+0x2dd8>
    3560: b7 00 00 00 0b 00 00 00      	mov64 r0, 0xb
    3568: b7 09 00 00 00 00 00 00      	mov64 r9, 0x0
    3570: 79 a2 d0 f5 00 00 00 00      	ldxdw r2, [r10 - 0xa30]
    3578: 71 22 00 00 00 00 00 00      	ldxb r2, [r2 + 0x0]
    3580: bf 23 00 00 00 00 00 00      	mov64 r3, r2
    3588: 57 03 00 00 0f 00 00 00      	and64 r3, 0xf
    3590: 55 03 54 ff 00 00 00 00      	jne r3, 0x0, -0xac <.text+0x2f18>
    3598: bf 23 00 00 00 00 00 00      	mov64 r3, r2
    35a0: 47 03 00 00 08 00 00 00      	or64 r3, 0x8
    35a8: 79 a4 d0 f5 00 00 00 00      	ldxdw r4, [r10 - 0xa30]
    35b0: 73 34 00 00 00 00 00 00      	stxb [r4 + 0x0], r3
    35b8: 79 43 50 00 00 00 00 00      	ldxdw r3, [r4 + 0x50]
    35c0: 55 03 08 00 f8 00 00 00      	jne r3, 0xf8, +0x8 <.text+0x34e8>
    35c8: 79 a2 d0 f5 00 00 00 00      	ldxdw r2, [r10 - 0xa30]
    35d0: 73 12 59 00 00 00 00 00      	stxb [r2 + 0x59], r1
    35d8: 71 21 00 00 00 00 00 00      	ldxb r1, [r2 + 0x0]
    35e0: 57 01 00 00 f7 00 00 00      	and64 r1, 0xf7
    35e8: 73 12 00 00 00 00 00 00      	stxb [r2 + 0x0], r1
    35f0: b7 00 00 00 1a 00 00 00      	mov64 r0, 0x1a
    35f8: 79 a1 e8 f5 00 00 00 00      	ldxdw r1, [r10 - 0xa18]
    3600: 05 00 1e ff 00 00 00 00      	ja -0xe2 <.text+0x2dd8>
    3608: 79 a1 d0 f5 00 00 00 00      	ldxdw r1, [r10 - 0xa30]
    3610: 73 21 00 00 00 00 00 00      	stxb [r1 + 0x0], r2
    3618: b7 00 00 00 00 00 00 00      	mov64 r0, 0x0
    3620: b7 09 00 00 01 00 00 00      	mov64 r9, 0x1
    3628: 79 a1 e8 f5 00 00 00 00      	ldxdw r1, [r10 - 0xa18]
    3630: 05 00 18 ff 00 00 00 00      	ja -0xe8 <.text+0x2dd8>
    3638: bf 59 00 00 00 00 00 00      	mov64 r9, r5
    3640: bf 47 00 00 00 00 00 00      	mov64 r7, r4
    3648: bf 38 00 00 00 00 00 00      	mov64 r8, r3
    3650: bf 16 00 00 00 00 00 00      	mov64 r6, r1
    3658: bf 21 00 00 00 00 00 00      	mov64 r1, r2
    3660: 18 02 00 00 1e 67 00 00 00 00 00 00 00 00 00 00      	lddw r2, 0x671e
    3670: b7 03 00 00 20 00 00 00      	mov64 r3, 0x20
    3678: 85 10 00 00 06 06 00 00      	call 0x606
    3680: b7 02 00 00 06 00 00 00      	mov64 r2, 0x6
    3688: 67 00 00 00 20 00 00 00      	lsh64 r0, 0x20
    3690: 77 00 00 00 20 00 00 00      	rsh64 r0, 0x20
    3698: 55 00 21 00 00 00 00 00      	jne r0, 0x0, +0x21 <.text+0x3688>
    36a0: 79 95 08 f0 00 00 00 00      	ldxdw r5, [r9 - 0xff8]
    36a8: b7 02 00 00 02 00 00 00      	mov64 r2, 0x2
    36b0: b7 01 00 00 00 00 00 00      	mov64 r1, 0x0
    36b8: 15 05 1d 00 00 00 00 00      	jeq r5, 0x0, +0x1d <.text+0x3688>
    36c0: 79 94 00 f0 00 00 00 00      	ldxdw r4, [r9 - 0x1000]
    36c8: 07 05 00 00 ff ff ff ff      	add64 r5, -0x1
    36d0: 71 43 00 00 00 00 00 00      	ldxb r3, [r4 + 0x0]
    36d8: 07 04 00 00 01 00 00 00      	add64 r4, 0x1
    36e0: 65 03 14 00 01 00 00 00      	jsgt r3, 0x1, +0x14 <.text+0x3668>
    36e8: 15 03 0b 00 00 00 00 00      	jeq r3, 0x0, +0xb <.text+0x3628>
    36f0: b7 02 00 00 00 00 00 00      	mov64 r2, 0x0
    36f8: 15 03 01 00 01 00 00 00      	jeq r3, 0x1, +0x1 <.text+0x35e8>
    3700: 05 00 14 00 00 00 00 00      	ja +0x14 <.text+0x3688>
    3708: bf a1 00 00 00 00 00 00      	mov64 r1, r10
    3710: 07 01 00 00 e0 ff ff ff      	add64 r1, -0x20
    3718: bf 82 00 00 00 00 00 00      	mov64 r2, r8
    3720: bf 73 00 00 00 00 00 00      	mov64 r3, r7
    3728: 85 10 00 00 83 fc ff ff      	call -0x37d
    3730: 61 a1 e4 ff 00 00 00 00      	ldxw r1, [r10 - 0x1c]
    3738: 61 a2 e0 ff 00 00 00 00      	ldxw r2, [r10 - 0x20]
    3740: 05 00 0c 00 00 00 00 00      	ja +0xc <.text+0x3688>
    3748: bf a1 00 00 00 00 00 00      	mov64 r1, r10
    3750: 07 01 00 00 d8 ff ff ff      	add64 r1, -0x28
    3758: bf 82 00 00 00 00 00 00      	mov64 r2, r8
    3760: bf 73 00 00 00 00 00 00      	mov64 r3, r7
    3768: 85 10 00 00 4e fa ff ff      	call -0x5b2
    3770: 61 a1 dc ff 00 00 00 00      	ldxw r1, [r10 - 0x24]
    3778: 61 a2 d8 ff 00 00 00 00      	ldxw r2, [r10 - 0x28]
    3780: 05 00 04 00 00 00 00 00      	ja +0x4 <.text+0x3688>
    3788: 15 03 06 00 02 00 00 00      	jeq r3, 0x2, +0x6 <.text+0x36a0>
    3790: 15 03 0d 00 03 00 00 00      	jeq r3, 0x3, +0xd <.text+0x36e0>
    3798: b7 02 00 00 00 00 00 00      	mov64 r2, 0x0
    37a0: 15 03 13 00 04 00 00 00      	jeq r3, 0x4, +0x13 <.text+0x3720>
    37a8: 63 16 04 00 00 00 00 00      	stxw [r6 + 0x4], r1
    37b0: 63 26 00 00 00 00 00 00      	stxw [r6 + 0x0], r2
    37b8: 95 00 00 00 00 00 00 00      	exit
    37c0: bf a1 00 00 00 00 00 00      	mov64 r1, r10
    37c8: 07 01 00 00 e8 ff ff ff      	add64 r1, -0x18
    37d0: bf 82 00 00 00 00 00 00      	mov64 r2, r8
    37d8: bf 73 00 00 00 00 00 00      	mov64 r3, r7
    37e0: 85 10 00 00 3f fd ff ff      	call -0x2c1
    37e8: 61 a1 ec ff 00 00 00 00      	ldxw r1, [r10 - 0x14]
    37f0: 61 a2 e8 ff 00 00 00 00      	ldxw r2, [r10 - 0x18]
    37f8: 05 00 f5 ff 00 00 00 00      	ja -0xb <.text+0x3688>
    3800: bf a1 00 00 00 00 00 00      	mov64 r1, r10
    3808: 07 01 00 00 f0 ff ff ff      	add64 r1, -0x10
    3810: bf 82 00 00 00 00 00 00      	mov64 r2, r8
    3818: bf 73 00 00 00 00 00 00      	mov64 r3, r7
    3820: 85 10 00 00 0e fe ff ff      	call -0x1f2
    3828: 61 a1 f4 ff 00 00 00 00      	ldxw r1, [r10 - 0xc]
    3830: 61 a2 f0 ff 00 00 00 00      	ldxw r2, [r10 - 0x10]
    3838: 05 00 ed ff 00 00 00 00      	ja -0x13 <.text+0x3688>
    3840: bf a1 00 00 00 00 00 00      	mov64 r1, r10
    3848: 07 01 00 00 f8 ff ff ff      	add64 r1, -0x8
    3850: bf 82 00 00 00 00 00 00      	mov64 r2, r8
    3858: bf 73 00 00 00 00 00 00      	mov64 r3, r7
    3860: 85 10 00 00 c8 fe ff ff      	call -0x138
    3868: 61 a1 fc ff 00 00 00 00      	ldxw r1, [r10 - 0x4]
    3870: 61 a2 f8 ff 00 00 00 00      	ldxw r2, [r10 - 0x8]
    3878: 05 00 e5 ff 00 00 00 00      	ja -0x1b <.text+0x3688>

0000000000003880 <entrypoint>:
    3880: bf 12 00 00 00 00 00 00      	mov64 r2, r1
    3888: b7 00 00 00 08 00 00 00      	mov64 r0, 0x8
    3890: 79 21 00 00 00 00 00 00      	ldxdw r1, [r2 + 0x0]
    3898: b7 04 00 00 00 00 00 00      	mov64 r4, 0x0
    38a0: 15 01 82 00 00 00 00 00      	jeq r1, 0x0, +0x82 <entrypoint+0x438>
    38a8: bf 14 00 00 00 00 00 00      	mov64 r4, r1
    38b0: a5 01 01 00 80 00 00 00      	jlt r1, 0x80, +0x1 <entrypoint+0x40>
    38b8: b7 04 00 00 80 00 00 00      	mov64 r4, 0x80
    38c0: b7 03 00 00 00 00 00 00      	mov64 r3, 0x0
    38c8: bf a5 00 00 00 00 00 00      	mov64 r5, r10
    38d0: 07 05 00 00 00 fc ff ff      	add64 r5, -0x400
    38d8: 05 00 07 00 00 00 00 00      	ja +0x7 <entrypoint+0x98>
    38e0: 57 08 00 00 01 00 00 00      	and64 r8, 0x1
    38e8: 55 08 04 01 00 00 00 00      	jne r8, 0x0, +0x104 <entrypoint+0x890>
    38f0: 07 03 00 00 01 00 00 00      	add64 r3, 0x1
    38f8: 7b 65 00 00 00 00 00 00      	stxdw [r5 + 0x0], r6
    3900: 07 05 00 00 08 00 00 00      	add64 r5, 0x8
    3908: ad 43 01 00 00 00 00 00      	jlt r3, r4, +0x1 <entrypoint+0x98>
    3910: 05 00 37 00 00 00 00 00      	ja +0x37 <entrypoint+0x250>
    3918: bf 26 00 00 00 00 00 00      	mov64 r6, r2
    3920: 0f 06 00 00 00 00 00 00      	add64 r6, r0
    3928: 71 67 00 00 00 00 00 00      	ldxb r7, [r6 + 0x0]
    3930: 15 07 0e 00 ff 00 00 00      	jeq r7, 0xff, +0xe <entrypoint+0x128>
    3938: bf 08 00 00 00 00 00 00      	mov64 r8, r0
    3940: 07 08 00 00 08 00 00 00      	add64 r8, 0x8
    3948: b7 06 00 00 01 00 00 00      	mov64 r6, 0x1
    3950: ad 08 01 00 00 00 00 00      	jlt r8, r0, +0x1 <entrypoint+0xe0>
    3958: b7 06 00 00 00 00 00 00      	mov64 r6, 0x0
    3960: 57 06 00 00 01 00 00 00      	and64 r6, 0x1
    3968: 55 06 f1 00 00 00 00 00      	jne r6, 0x0, +0xf1 <entrypoint+0x878>
    3970: 67 07 00 00 03 00 00 00      	lsh64 r7, 0x3
    3978: bf a0 00 00 00 00 00 00      	mov64 r0, r10
    3980: 07 00 00 00 00 fc ff ff      	add64 r0, -0x400
    3988: 0f 70 00 00 00 00 00 00      	add64 r0, r7
    3990: 79 06 00 00 00 00 00 00      	ldxdw r6, [r0 + 0x0]
    3998: bf 80 00 00 00 00 00 00      	mov64 r0, r8
    39a0: 05 00 e9 ff 00 00 00 00      	ja -0x17 <entrypoint+0x70>
    39a8: bf 07 00 00 00 00 00 00      	mov64 r7, r0
    39b0: 07 07 00 00 58 00 00 00      	add64 r7, 0x58
    39b8: b7 08 00 00 01 00 00 00      	mov64 r8, 0x1
    39c0: ad 07 01 00 00 00 00 00      	jlt r7, r0, +0x1 <entrypoint+0x150>
    39c8: b7 08 00 00 00 00 00 00      	mov64 r8, 0x0
    39d0: 72 06 00 00 00 00 00 00      	stb [r6 + 0x0], 0x0
    39d8: 57 08 00 00 01 00 00 00      	and64 r8, 0x1
    39e0: 55 08 ee 00 00 00 00 00      	jne r8, 0x0, +0xee <entrypoint+0x8d8>
    39e8: 79 60 50 00 00 00 00 00      	ldxdw r0, [r6 + 0x50]
    39f0: bf 78 00 00 00 00 00 00      	mov64 r8, r7
    39f8: 0f 08 00 00 00 00 00 00      	add64 r8, r0
    3a00: b7 00 00 00 01 00 00 00      	mov64 r0, 0x1
    3a08: ad 78 01 00 00 00 00 00      	jlt r8, r7, +0x1 <entrypoint+0x198>
    3a10: b7 00 00 00 00 00 00 00      	mov64 r0, 0x0
    3a18: 57 00 00 00 01 00 00 00      	and64 r0, 0x1
    3a20: 55 00 e9 00 00 00 00 00      	jne r0, 0x0, +0xe9 <entrypoint+0x8f0>
    3a28: bf 80 00 00 00 00 00 00      	mov64 r0, r8
    3a30: 07 00 00 00 00 28 00 00      	add64 r0, 0x2800
    3a38: b7 07 00 00 01 00 00 00      	mov64 r7, 0x1
    3a40: ad 80 01 00 00 00 00 00      	jlt r0, r8, +0x1 <entrypoint+0x1d0>
    3a48: b7 07 00 00 00 00 00 00      	mov64 r7, 0x0
    3a50: 57 07 00 00 01 00 00 00      	and64 r7, 0x1
    3a58: 55 07 d9 00 00 00 00 00      	jne r7, 0x0, +0xd9 <entrypoint+0x8a8>
    3a60: bf 07 00 00 00 00 00 00      	mov64 r7, r0
    3a68: 07 07 00 00 07 00 00 00      	add64 r7, 0x7
    3a70: 57 07 00 00 f8 ff ff ff      	and64 r7, -0x8
    3a78: b7 08 00 00 01 00 00 00      	mov64 r8, 0x1
    3a80: ad 07 01 00 00 00 00 00      	jlt r7, r0, +0x1 <entrypoint+0x210>
    3a88: b7 08 00 00 00 00 00 00      	mov64 r8, 0x0
    3a90: 57 08 00 00 01 00 00 00      	and64 r8, 0x1
    3a98: 55 08 d4 00 00 00 00 00      	jne r8, 0x0, +0xd4 <entrypoint+0x8c0>
    3aa0: bf 70 00 00 00 00 00 00      	mov64 r0, r7
    3aa8: 07 00 00 00 08 00 00 00      	add64 r0, 0x8
    3ab0: b7 08 00 00 01 00 00 00      	mov64 r8, 0x1
    3ab8: ad 70 c4 ff 00 00 00 00      	jlt r0, r7, -0x3c <entrypoint+0x60>
    3ac0: b7 08 00 00 00 00 00 00      	mov64 r8, 0x0
    3ac8: 05 00 c2 ff 00 00 00 00      	ja -0x3e <entrypoint+0x60>
    3ad0: a5 01 3c 00 81 00 00 00      	jlt r1, 0x81, +0x3c <entrypoint+0x438>
    3ad8: bf 05 00 00 00 00 00 00      	mov64 r5, r0
    3ae0: bf 43 00 00 00 00 00 00      	mov64 r3, r4
    3ae8: 05 00 06 00 00 00 00 00      	ja +0x6 <entrypoint+0x2a0>
    3af0: 57 06 00 00 01 00 00 00      	and64 r6, 0x1
    3af8: 55 06 d1 00 00 00 00 00      	jne r6, 0x0, +0xd1 <entrypoint+0x908>
    3b00: 07 03 00 00 01 00 00 00      	add64 r3, 0x1
    3b08: bf 05 00 00 00 00 00 00      	mov64 r5, r0
    3b10: ad 13 01 00 00 00 00 00      	jlt r3, r1, +0x1 <entrypoint+0x2a0>
    3b18: 05 00 33 00 00 00 00 00      	ja +0x33 <entrypoint+0x438>
    3b20: bf 20 00 00 00 00 00 00      	mov64 r0, r2
    3b28: 0f 50 00 00 00 00 00 00      	add64 r0, r5
    3b30: 71 06 00 00 00 00 00 00      	ldxb r6, [r0 + 0x0]
    3b38: 15 06 06 00 ff 00 00 00      	jeq r6, 0xff, +0x6 <entrypoint+0x2f0>
    3b40: bf 50 00 00 00 00 00 00      	mov64 r0, r5
    3b48: 07 00 00 00 08 00 00 00      	add64 r0, 0x8
    3b50: b7 06 00 00 01 00 00 00      	mov64 r6, 0x1
    3b58: ad 50 f2 ff 00 00 00 00      	jlt r0, r5, -0xe <entrypoint+0x270>
    3b60: b7 06 00 00 00 00 00 00      	mov64 r6, 0x0
    3b68: 05 00 f0 ff 00 00 00 00      	ja -0x10 <entrypoint+0x270>
    3b70: bf 56 00 00 00 00 00 00      	mov64 r6, r5
    3b78: 07 06 00 00 58 00 00 00      	add64 r6, 0x58
    3b80: b7 07 00 00 01 00 00 00      	mov64 r7, 0x1
    3b88: ad 56 01 00 00 00 00 00      	jlt r6, r5, +0x1 <entrypoint+0x318>
    3b90: b7 07 00 00 00 00 00 00      	mov64 r7, 0x0
    3b98: 57 07 00 00 01 00 00 00      	and64 r7, 0x1
    3ba0: 55 07 bf 00 00 00 00 00      	jne r7, 0x0, +0xbf <entrypoint+0x920>
    3ba8: 79 05 50 00 00 00 00 00      	ldxdw r5, [r0 + 0x50]
    3bb0: bf 60 00 00 00 00 00 00      	mov64 r0, r6
    3bb8: 0f 50 00 00 00 00 00 00      	add64 r0, r5
    3bc0: b7 05 00 00 01 00 00 00      	mov64 r5, 0x1
    3bc8: ad 60 01 00 00 00 00 00      	jlt r0, r6, +0x1 <entrypoint+0x358>
    3bd0: b7 05 00 00 00 00 00 00      	mov64 r5, 0x0
    3bd8: 57 05 00 00 01 00 00 00      	and64 r5, 0x1
    3be0: 55 05 c0 00 00 00 00 00      	jne r5, 0x0, +0xc0 <entrypoint+0x968>
    3be8: bf 05 00 00 00 00 00 00      	mov64 r5, r0
    3bf0: 07 05 00 00 00 28 00 00      	add64 r5, 0x2800
    3bf8: b7 06 00 00 01 00 00 00      	mov64 r6, 0x1
    3c00: ad 05 01 00 00 00 00 00      	jlt r5, r0, +0x1 <entrypoint+0x390>
    3c08: b7 06 00 00 00 00 00 00      	mov64 r6, 0x0
    3c10: 57 06 00 00 01 00 00 00      	and64 r6, 0x1
    3c18: 55 06 b6 00 00 00 00 00      	jne r6, 0x0, +0xb6 <entrypoint+0x950>
    3c20: bf 56 00 00 00 00 00 00      	mov64 r6, r5
    3c28: 07 06 00 00 07 00 00 00      	add64 r6, 0x7
    3c30: 57 06 00 00 f8 ff ff ff      	and64 r6, -0x8
    3c38: b7 00 00 00 01 00 00 00      	mov64 r0, 0x1
    3c40: ad 56 01 00 00 00 00 00      	jlt r6, r5, +0x1 <entrypoint+0x3d0>
    3c48: b7 00 00 00 00 00 00 00      	mov64 r0, 0x0
    3c50: 57 00 00 00 01 00 00 00      	and64 r0, 0x1
    3c58: 55 00 ab 00 00 00 00 00      	jne r0, 0x0, +0xab <entrypoint+0x938>
    3c60: bf 60 00 00 00 00 00 00      	mov64 r0, r6
    3c68: 07 00 00 00 08 00 00 00      	add64 r0, 0x8
    3c70: b7 05 00 00 01 00 00 00      	mov64 r5, 0x1
    3c78: ad 60 01 00 00 00 00 00      	jlt r0, r6, +0x1 <entrypoint+0x408>
    3c80: b7 05 00 00 00 00 00 00      	mov64 r5, 0x0
    3c88: 57 05 00 00 01 00 00 00      	and64 r5, 0x1
    3c90: 55 05 01 00 00 00 00 00      	jne r5, 0x0, +0x1 <entrypoint+0x420>
    3c98: 05 00 cc ff 00 00 00 00      	ja -0x34 <entrypoint+0x280>
    3ca0: 18 01 00 00 d0 68 00 00 00 00 00 00 00 00 00 00      	lddw r1, 0x68d0
    3cb0: 85 10 00 00 1a 05 00 00      	call 0x51a
    3cb8: bf 01 00 00 00 00 00 00      	mov64 r1, r0
    3cc0: 07 01 00 00 08 00 00 00      	add64 r1, 0x8
    3cc8: b7 03 00 00 01 00 00 00      	mov64 r3, 0x1
    3cd0: ad 01 01 00 00 00 00 00      	jlt r1, r0, +0x1 <entrypoint+0x460>
    3cd8: b7 03 00 00 00 00 00 00      	mov64 r3, 0x0
    3ce0: 57 03 00 00 01 00 00 00      	and64 r3, 0x1
    3ce8: 55 03 a2 00 00 00 00 00      	jne r3, 0x0, +0xa2 <entrypoint+0x980>
    3cf0: bf 23 00 00 00 00 00 00      	mov64 r3, r2
    3cf8: 0f 03 00 00 00 00 00 00      	add64 r3, r0
    3d00: 79 35 00 00 00 00 00 00      	ldxdw r5, [r3 + 0x0]
    3d08: bf 13 00 00 00 00 00 00      	mov64 r3, r1
    3d10: 0f 53 00 00 00 00 00 00      	add64 r3, r5
    3d18: b7 00 00 00 01 00 00 00      	mov64 r0, 0x1
    3d20: ad 13 01 00 00 00 00 00      	jlt r3, r1, +0x1 <entrypoint+0x4b0>
    3d28: b7 00 00 00 00 00 00 00      	mov64 r0, 0x0
    3d30: 57 00 00 00 01 00 00 00      	and64 r0, 0x1
    3d38: 55 00 9b 00 00 00 00 00      	jne r0, 0x0, +0x9b <entrypoint+0x998>
    3d40: 7b 5a 08 f0 00 00 00 00      	stxdw [r10 - 0xff8], r5
    3d48: bf 25 00 00 00 00 00 00      	mov64 r5, r2
    3d50: 0f 15 00 00 00 00 00 00      	add64 r5, r1
    3d58: 7b 5a 00 f0 00 00 00 00      	stxdw [r10 - 0x1000], r5
    3d60: 0f 32 00 00 00 00 00 00      	add64 r2, r3
    3d68: bf a1 00 00 00 00 00 00      	mov64 r1, r10
    3d70: 07 01 00 00 f8 fb ff ff      	add64 r1, -0x408
    3d78: bf a3 00 00 00 00 00 00      	mov64 r3, r10
    3d80: 07 03 00 00 00 fc ff ff      	add64 r3, -0x400
    3d88: bf a5 00 00 00 00 00 00      	mov64 r5, r10
    3d90: 85 10 00 00 14 ff ff ff      	call -0xec
    3d98: b7 00 00 00 00 00 00 00      	mov64 r0, 0x0
    3da0: 61 a1 f8 fb 00 00 00 00      	ldxw r1, [r10 - 0x408]
    3da8: 15 01 68 00 1a 00 00 00      	jeq r1, 0x1a, +0x68 <entrypoint+0x870>
    3db0: 65 01 09 00 0c 00 00 00      	jsgt r1, 0xc, +0x9 <entrypoint+0x580>
    3db8: 65 01 0f 00 05 00 00 00      	jsgt r1, 0x5, +0xf <entrypoint+0x5b8>
    3dc0: 65 01 24 00 02 00 00 00      	jsgt r1, 0x2, +0x24 <entrypoint+0x668>
    3dc8: 15 01 3b 00 00 00 00 00      	jeq r1, 0x0, +0x3b <entrypoint+0x728>
    3dd0: 18 00 00 00 00 00 00 00 00 00 00 00 02 00 00 00      	lddw r0, 0x200000000
    3de0: 15 01 61 00 01 00 00 00      	jeq r1, 0x1, +0x61 <entrypoint+0x870>
    3de8: 18 00 00 00 00 00 00 00 00 00 00 00 03 00 00 00      	lddw r0, 0x300000000
    3df8: 05 00 5e 00 00 00 00 00      	ja +0x5e <entrypoint+0x870>
    3e00: 65 01 0c 00 12 00 00 00      	jsgt r1, 0x12, +0xc <entrypoint+0x5e8>
    3e08: 65 01 20 00 0f 00 00 00      	jsgt r1, 0xf, +0x20 <entrypoint+0x690>
    3e10: 15 01 38 00 0d 00 00 00      	jeq r1, 0xd, +0x38 <entrypoint+0x758>
    3e18: 15 01 52 00 0e 00 00 00      	jeq r1, 0xe, +0x52 <entrypoint+0x830>
    3e20: 18 00 00 00 00 00 00 00 00 00 00 00 10 00 00 00      	lddw r0, 0x1000000000
    3e30: 05 00 57 00 00 00 00 00      	ja +0x57 <entrypoint+0x870>
    3e38: 65 01 0b 00 08 00 00 00      	jsgt r1, 0x8, +0xb <entrypoint+0x618>
    3e40: 15 01 26 00 06 00 00 00      	jeq r1, 0x6, +0x26 <entrypoint+0x6f8>
    3e48: 15 01 3a 00 07 00 00 00      	jeq r1, 0x7, +0x3a <entrypoint+0x7a0>
    3e50: 18 00 00 00 00 00 00 00 00 00 00 00 09 00 00 00      	lddw r0, 0x900000000
    3e60: 05 00 51 00 00 00 00 00      	ja +0x51 <entrypoint+0x870>
    3e68: 65 01 0a 00 15 00 00 00      	jsgt r1, 0x15, +0xa <entrypoint+0x640>
    3e70: 15 01 23 00 13 00 00 00      	jeq r1, 0x13, +0x23 <entrypoint+0x710>
    3e78: 15 01 37 00 14 00 00 00      	jeq r1, 0x14, +0x37 <entrypoint+0x7b8>
    3e80: 18 00 00 00 00 00 00 00 00 00 00 00 16 00 00 00      	lddw r0, 0x1600000000
    3e90: 05 00 4b 00 00 00 00 00      	ja +0x4b <entrypoint+0x870>
    3e98: 65 01 13 00 0a 00 00 00      	jsgt r1, 0xa, +0x13 <entrypoint+0x6b8>
    3ea0: 15 01 35 00 09 00 00 00      	jeq r1, 0x9, +0x35 <entrypoint+0x7d0>
    3ea8: 18 00 00 00 00 00 00 00 00 00 00 00 0b 00 00 00      	lddw r0, 0xb00000000
    3eb8: 05 00 46 00 00 00 00 00      	ja +0x46 <entrypoint+0x870>
    3ec0: 65 01 12 00 17 00 00 00      	jsgt r1, 0x17, +0x12 <entrypoint+0x6d8>
    3ec8: 15 01 33 00 16 00 00 00      	jeq r1, 0x16, +0x33 <entrypoint+0x7e8>
    3ed0: 18 00 00 00 00 00 00 00 00 00 00 00 18 00 00 00      	lddw r0, 0x1800000000
    3ee0: 05 00 41 00 00 00 00 00      	ja +0x41 <entrypoint+0x870>
    3ee8: 15 01 20 00 03 00 00 00      	jeq r1, 0x3, +0x20 <entrypoint+0x770>
    3ef0: 15 01 3a 00 04 00 00 00      	jeq r1, 0x4, +0x3a <entrypoint+0x848>
    3ef8: 18 00 00 00 00 00 00 00 00 00 00 00 06 00 00 00      	lddw r0, 0x600000000
    3f08: 05 00 3c 00 00 00 00 00      	ja +0x3c <entrypoint+0x870>
    3f10: 15 01 1e 00 10 00 00 00      	jeq r1, 0x10, +0x1e <entrypoint+0x788>
    3f18: 15 01 38 00 11 00 00 00      	jeq r1, 0x11, +0x38 <entrypoint+0x860>
    3f20: 18 00 00 00 00 00 00 00 00 00 00 00 13 00 00 00      	lddw r0, 0x1300000000
    3f30: 05 00 37 00 00 00 00 00      	ja +0x37 <entrypoint+0x870>
    3f38: 15 01 28 00 0b 00 00 00      	jeq r1, 0xb, +0x28 <entrypoint+0x800>
    3f40: 18 00 00 00 00 00 00 00 00 00 00 00 0d 00 00 00      	lddw r0, 0xd00000000
    3f50: 05 00 33 00 00 00 00 00      	ja +0x33 <entrypoint+0x870>
    3f58: 15 01 27 00 18 00 00 00      	jeq r1, 0x18, +0x27 <entrypoint+0x818>
    3f60: 18 00 00 00 00 00 00 00 00 00 00 00 1a 00 00 00      	lddw r0, 0x1a00000000
    3f70: 05 00 2f 00 00 00 00 00      	ja +0x2f <entrypoint+0x870>
    3f78: 18 00 00 00 00 00 00 00 00 00 00 00 07 00 00 00      	lddw r0, 0x700000000
    3f88: 05 00 2c 00 00 00 00 00      	ja +0x2c <entrypoint+0x870>
    3f90: 18 00 00 00 00 00 00 00 00 00 00 00 14 00 00 00      	lddw r0, 0x1400000000
    3fa0: 05 00 29 00 00 00 00 00      	ja +0x29 <entrypoint+0x870>
    3fa8: 61 a1 fc fb 00 00 00 00      	ldxw r1, [r10 - 0x404]
    3fb0: 18 00 00 00 00 00 00 00 00 00 00 00 01 00 00 00      	lddw r0, 0x100000000
    3fc0: 15 01 25 00 00 00 00 00      	jeq r1, 0x0, +0x25 <entrypoint+0x870>
    3fc8: bf 10 00 00 00 00 00 00      	mov64 r0, r1
    3fd0: 05 00 23 00 00 00 00 00      	ja +0x23 <entrypoint+0x870>
    3fd8: 18 00 00 00 00 00 00 00 00 00 00 00 0e 00 00 00      	lddw r0, 0xe00000000
    3fe8: 05 00 20 00 00 00 00 00      	ja +0x20 <entrypoint+0x870>
    3ff0: 18 00 00 00 00 00 00 00 00 00 00 00 04 00 00 00      	lddw r0, 0x400000000
    4000: 05 00 1d 00 00 00 00 00      	ja +0x1d <entrypoint+0x870>
    4008: 18 00 00 00 00 00 00 00 00 00 00 00 11 00 00 00      	lddw r0, 0x1100000000
    4018: 05 00 1a 00 00 00 00 00      	ja +0x1a <entrypoint+0x870>
    4020: 18 00 00 00 00 00 00 00 00 00 00 00 08 00 00 00      	lddw r0, 0x800000000
    4030: 05 00 17 00 00 00 00 00      	ja +0x17 <entrypoint+0x870>
    4038: 18 00 00 00 00 00 00 00 00 00 00 00 15 00 00 00      	lddw r0, 0x1500000000
    4048: 05 00 14 00 00 00 00 00      	ja +0x14 <entrypoint+0x870>
    4050: 18 00 00 00 00 00 00 00 00 00 00 00 0a 00 00 00      	lddw r0, 0xa00000000
    4060: 05 00 11 00 00 00 00 00      	ja +0x11 <entrypoint+0x870>
    4068: 18 00 00 00 00 00 00 00 00 00 00 00 17 00 00 00      	lddw r0, 0x1700000000
    4078: 05 00 0e 00 00 00 00 00      	ja +0xe <entrypoint+0x870>
    4080: 18 00 00 00 00 00 00 00 00 00 00 00 0c 00 00 00      	lddw r0, 0xc00000000
    4090: 05 00 0b 00 00 00 00 00      	ja +0xb <entrypoint+0x870>
    4098: 18 00 00 00 00 00 00 00 00 00 00 00 19 00 00 00      	lddw r0, 0x1900000000
    40a8: 05 00 08 00 00 00 00 00      	ja +0x8 <entrypoint+0x870>
    40b0: 18 00 00 00 00 00 00 00 00 00 00 00 0f 00 00 00      	lddw r0, 0xf00000000
    40c0: 05 00 05 00 00 00 00 00      	ja +0x5 <entrypoint+0x870>
    40c8: 18 00 00 00 00 00 00 00 00 00 00 00 05 00 00 00      	lddw r0, 0x500000000
    40d8: 05 00 02 00 00 00 00 00      	ja +0x2 <entrypoint+0x870>
    40e0: 18 00 00 00 00 00 00 00 00 00 00 00 12 00 00 00      	lddw r0, 0x1200000000
    40f0: 95 00 00 00 00 00 00 00      	exit
    40f8: 18 01 00 00 e8 68 00 00 00 00 00 00 00 00 00 00      	lddw r1, 0x68e8
    4108: 85 10 00 00 8f 04 00 00      	call 0x48f
    4110: 18 01 00 00 60 69 00 00 00 00 00 00 00 00 00 00      	lddw r1, 0x6960
    4120: 85 10 00 00 8c 04 00 00      	call 0x48c
    4128: 18 01 00 00 30 69 00 00 00 00 00 00 00 00 00 00      	lddw r1, 0x6930
    4138: 85 10 00 00 89 04 00 00      	call 0x489
    4140: 18 01 00 00 48 69 00 00 00 00 00 00 00 00 00 00      	lddw r1, 0x6948
    4150: 85 10 00 00 86 04 00 00      	call 0x486
    4158: 18 01 00 00 00 69 00 00 00 00 00 00 00 00 00 00      	lddw r1, 0x6900
    4168: 85 10 00 00 83 04 00 00      	call 0x483
    4170: 18 01 00 00 18 69 00 00 00 00 00 00 00 00 00 00      	lddw r1, 0x6918
    4180: 85 10 00 00 80 04 00 00      	call 0x480
    4188: 18 01 00 00 58 68 00 00 00 00 00 00 00 00 00 00      	lddw r1, 0x6858
    4198: 85 10 00 00 7d 04 00 00      	call 0x47d
    41a0: 18 01 00 00 70 68 00 00 00 00 00 00 00 00 00 00      	lddw r1, 0x6870
    41b0: 85 10 00 00 7a 04 00 00      	call 0x47a
    41b8: 18 01 00 00 b8 68 00 00 00 00 00 00 00 00 00 00      	lddw r1, 0x68b8
    41c8: 85 10 00 00 77 04 00 00      	call 0x477
    41d0: 18 01 00 00 a0 68 00 00 00 00 00 00 00 00 00 00      	lddw r1, 0x68a0
    41e0: 85 10 00 00 74 04 00 00      	call 0x474
    41e8: 18 01 00 00 88 68 00 00 00 00 00 00 00 00 00 00      	lddw r1, 0x6888
    41f8: 85 10 00 00 71 04 00 00      	call 0x471
    4200: 18 01 00 00 28 68 00 00 00 00 00 00 00 00 00 00      	lddw r1, 0x6828
    4210: 85 10 00 00 6e 04 00 00      	call 0x46e
    4218: 18 01 00 00 40 68 00 00 00 00 00 00 00 00 00 00      	lddw r1, 0x6840
    4228: 85 10 00 00 6b 04 00 00      	call 0x46b

0000000000004230 <custom_panic>:
    4230: 79 11 08 00 00 00 00 00      	ldxdw r1, [r1 + 0x8]
    4238: 79 12 08 00 00 00 00 00      	ldxdw r2, [r1 + 0x8]
    4240: 79 11 00 00 00 00 00 00      	ldxdw r1, [r1 + 0x0]
    4248: 85 10 00 00 ff ff ff ff      	call -0x1
    4250: 18 01 00 00 88 67 00 00 00 00 00 00 00 00 00 00      	lddw r1, 0x6788
    4260: b7 02 00 00 0e 00 00 00      	mov64 r2, 0xe
    4268: 85 10 00 00 ff ff ff ff      	call -0x1
    4270: 95 00 00 00 00 00 00 00      	exit
    4278: 79 11 08 00 00 00 00 00      	ldxdw r1, [r1 + 0x8]
    4280: 61 14 14 00 00 00 00 00      	ldxw r4, [r1 + 0x14]
    4288: 61 13 10 00 00 00 00 00      	ldxw r3, [r1 + 0x10]
    4290: 79 12 08 00 00 00 00 00      	ldxdw r2, [r1 + 0x8]
    4298: 79 11 00 00 00 00 00 00      	ldxdw r1, [r1 + 0x0]
    42a0: 85 10 00 00 ff ff ff ff      	call -0x1
    42a8: b7 09 00 00 0a 00 00 00      	mov64 r9, 0xa
    42b0: 79 20 20 00 00 00 00 00      	ldxdw r0, [r2 + 0x20]
    42b8: a5 00 14 00 03 00 00 00      	jlt r0, 0x3, +0x14 <custom_panic+0x130>
    42c0: 7b 0a 00 ff 00 00 00 00      	stxdw [r10 - 0x100], r0
    42c8: 7b 1a 28 ff 00 00 00 00      	stxdw [r10 - 0xd8], r1
    42d0: 7b 4a 18 ff 00 00 00 00      	stxdw [r10 - 0xe8], r4
    42d8: 7b 5a 08 ff 00 00 00 00      	stxdw [r10 - 0xf8], r5
    42e0: 7b 2a 10 ff 00 00 00 00      	stxdw [r10 - 0xf0], r2
    42e8: 79 28 18 00 00 00 00 00      	ldxdw r8, [r2 + 0x18]
    42f0: 79 82 00 00 00 00 00 00      	ldxdw r2, [r8 + 0x0]
    42f8: 7b 3a 20 ff 00 00 00 00      	stxdw [r10 - 0xe0], r3
    4300: 79 31 00 00 00 00 00 00      	ldxdw r1, [r3 + 0x0]
    4308: 79 16 00 00 00 00 00 00      	ldxdw r6, [r1 + 0x0]
    4310: bf 67 00 00 00 00 00 00      	mov64 r7, r6
    4318: 07 07 00 00 08 00 00 00      	add64 r7, 0x8
    4320: bf 71 00 00 00 00 00 00      	mov64 r1, r7
    4328: b7 03 00 00 20 00 00 00      	mov64 r3, 0x20
    4330: 85 10 00 00 6f 04 00 00      	call 0x46f
    4338: b7 09 00 00 01 00 00 00      	mov64 r9, 0x1
    4340: 67 00 00 00 20 00 00 00      	lsh64 r0, 0x20
    4348: 77 00 00 00 20 00 00 00      	rsh64 r0, 0x20
    4350: 15 00 03 00 00 00 00 00      	jeq r0, 0x0, +0x3 <custom_panic+0x140>
    4358: 79 a1 28 ff 00 00 00 00      	ldxdw r1, [r10 - 0xd8]
    4360: 63 91 00 00 00 00 00 00      	stxw [r1 + 0x0], r9
    4368: 95 00 00 00 00 00 00 00      	exit
    4370: 7b 8a f8 fe 00 00 00 00      	stxdw [r10 - 0x108], r8
    4378: 71 82 08 00 00 00 00 00      	ldxb r2, [r8 + 0x8]
    4380: b7 01 00 00 ff ff ff ff      	mov64 r1, -0x1
    4388: 55 02 01 00 00 00 00 00      	jne r2, 0x0, +0x1 <custom_panic+0x168>
    4390: b7 01 00 00 88 ff ff ff      	mov64 r1, -0x78
    4398: 71 62 00 00 00 00 00 00      	ldxb r2, [r6 + 0x0]
    43a0: 5f 21 00 00 00 00 00 00      	and64 r1, r2
    43a8: 57 01 00 00 ff 00 00 00      	and64 r1, 0xff
    43b0: b7 09 00 00 0b 00 00 00      	mov64 r9, 0xb
    43b8: 55 01 f3 ff 00 00 00 00      	jne r1, 0x0, -0xd <custom_panic+0x128>
    43c0: 71 61 01 00 00 00 00 00      	ldxb r1, [r6 + 0x1]
    43c8: 71 62 02 00 00 00 00 00      	ldxb r2, [r6 + 0x2]
    43d0: 71 64 03 00 00 00 00 00      	ldxb r4, [r6 + 0x3]
    43d8: 79 63 50 00 00 00 00 00      	ldxdw r3, [r6 + 0x50]
    43e0: bf 65 00 00 00 00 00 00      	mov64 r5, r6
    43e8: 07 05 00 00 28 00 00 00      	add64 r5, 0x28
    43f0: 7b 5a 50 ff 00 00 00 00      	stxdw [r10 - 0xb0], r5
    43f8: bf 65 00 00 00 00 00 00      	mov64 r5, r6
    4400: 07 05 00 00 58 00 00 00      	add64 r5, 0x58
    4408: 7b 5a 48 ff 00 00 00 00      	stxdw [r10 - 0xb8], r5
    4410: 7b 3a 40 ff 00 00 00 00      	stxdw [r10 - 0xc0], r3
    4418: 07 06 00 00 48 00 00 00      	add64 r6, 0x48
    4420: 7b 6a 38 ff 00 00 00 00      	stxdw [r10 - 0xc8], r6
    4428: 7b 7a 30 ff 00 00 00 00      	stxdw [r10 - 0xd0], r7
    4430: b7 09 00 00 01 00 00 00      	mov64 r9, 0x1
    4438: b7 03 00 00 01 00 00 00      	mov64 r3, 0x1
    4440: 55 04 01 00 00 00 00 00      	jne r4, 0x0, +0x1 <custom_panic+0x220>
    4448: b7 03 00 00 00 00 00 00      	mov64 r3, 0x0
    4450: 73 3a 62 ff 00 00 00 00      	stxb [r10 - 0x9e], r3
    4458: b7 04 00 00 01 00 00 00      	mov64 r4, 0x1
    4460: 79 a3 20 ff 00 00 00 00      	ldxdw r3, [r10 - 0xe0]
    4468: 79 a5 f8 fe 00 00 00 00      	ldxdw r5, [r10 - 0x108]
    4470: 55 02 01 00 00 00 00 00      	jne r2, 0x0, +0x1 <custom_panic+0x250>
    4478: b7 04 00 00 00 00 00 00      	mov64 r4, 0x0
    4480: 73 4a 61 ff 00 00 00 00      	stxb [r10 - 0x9f], r4
    4488: b7 02 00 00 01 00 00 00      	mov64 r2, 0x1
    4490: 55 01 01 00 00 00 00 00      	jne r1, 0x0, +0x1 <custom_panic+0x270>
    4498: b7 02 00 00 00 00 00 00      	mov64 r2, 0x0
    44a0: 73 2a 60 ff 00 00 00 00      	stxb [r10 - 0xa0], r2
    44a8: 7a 0a 58 ff 00 00 00 00      	stdw [r10 - 0xa8], 0x0
    44b0: 79 52 10 00 00 00 00 00      	ldxdw r2, [r5 + 0x10]
    44b8: 79 31 08 00 00 00 00 00      	ldxdw r1, [r3 + 0x8]
    44c0: 79 16 00 00 00 00 00 00      	ldxdw r6, [r1 + 0x0]
    44c8: bf 67 00 00 00 00 00 00      	mov64 r7, r6
    44d0: 07 07 00 00 08 00 00 00      	add64 r7, 0x8
    44d8: bf 71 00 00 00 00 00 00      	mov64 r1, r7
    44e0: b7 03 00 00 20 00 00 00      	mov64 r3, 0x20
    44e8: bf 58 00 00 00 00 00 00      	mov64 r8, r5
    44f0: 85 10 00 00 37 04 00 00      	call 0x437
    44f8: 67 00 00 00 20 00 00 00      	lsh64 r0, 0x20
    4500: 77 00 00 00 20 00 00 00      	rsh64 r0, 0x20
    4508: 55 00 c9 ff 00 00 00 00      	jne r0, 0x0, -0x37 <custom_panic+0x128>
    4510: 71 82 18 00 00 00 00 00      	ldxb r2, [r8 + 0x18]
    4518: b7 01 00 00 ff ff ff ff      	mov64 r1, -0x1
    4520: 55 02 01 00 00 00 00 00      	jne r2, 0x0, +0x1 <custom_panic+0x300>
    4528: b7 01 00 00 88 ff ff ff      	mov64 r1, -0x78
    4530: 71 62 00 00 00 00 00 00      	ldxb r2, [r6 + 0x0]
    4538: 5f 21 00 00 00 00 00 00      	and64 r1, r2
    4540: 57 01 00 00 ff 00 00 00      	and64 r1, 0xff
    4548: b7 09 00 00 0b 00 00 00      	mov64 r9, 0xb
    4550: 55 01 c0 ff 00 00 00 00      	jne r1, 0x0, -0x40 <custom_panic+0x128>
    4558: 71 61 01 00 00 00 00 00      	ldxb r1, [r6 + 0x1]
    4560: 71 62 02 00 00 00 00 00      	ldxb r2, [r6 + 0x2]
    4568: 71 64 03 00 00 00 00 00      	ldxb r4, [r6 + 0x3]
    4570: 79 63 50 00 00 00 00 00      	ldxdw r3, [r6 + 0x50]
    4578: bf 65 00 00 00 00 00 00      	mov64 r5, r6
    4580: 07 05 00 00 28 00 00 00      	add64 r5, 0x28
    4588: 7b 5a 88 ff 00 00 00 00      	stxdw [r10 - 0x78], r5
    4590: bf 65 00 00 00 00 00 00      	mov64 r5, r6
    4598: 07 05 00 00 58 00 00 00      	add64 r5, 0x58
    45a0: 7b 5a 80 ff 00 00 00 00      	stxdw [r10 - 0x80], r5
    45a8: 7b 3a 78 ff 00 00 00 00      	stxdw [r10 - 0x88], r3
    45b0: 07 06 00 00 48 00 00 00      	add64 r6, 0x48
    45b8: 7b 6a 70 ff 00 00 00 00      	stxdw [r10 - 0x90], r6
    45c0: 7b 7a 68 ff 00 00 00 00      	stxdw [r10 - 0x98], r7
    45c8: b7 09 00 00 01 00 00 00      	mov64 r9, 0x1
    45d0: b7 03 00 00 01 00 00 00      	mov64 r3, 0x1
    45d8: 55 04 01 00 00 00 00 00      	jne r4, 0x0, +0x1 <custom_panic+0x3b8>
    45e0: b7 03 00 00 00 00 00 00      	mov64 r3, 0x0
    45e8: 73 3a 9a ff 00 00 00 00      	stxb [r10 - 0x66], r3
    45f0: b7 04 00 00 01 00 00 00      	mov64 r4, 0x1
    45f8: 79 a3 20 ff 00 00 00 00      	ldxdw r3, [r10 - 0xe0]
    4600: 79 a5 f8 fe 00 00 00 00      	ldxdw r5, [r10 - 0x108]
    4608: 55 02 01 00 00 00 00 00      	jne r2, 0x0, +0x1 <custom_panic+0x3e8>
    4610: b7 04 00 00 00 00 00 00      	mov64 r4, 0x0
    4618: 73 4a 99 ff 00 00 00 00      	stxb [r10 - 0x67], r4
    4620: b7 02 00 00 01 00 00 00      	mov64 r2, 0x1
    4628: 55 01 01 00 00 00 00 00      	jne r1, 0x0, +0x1 <custom_panic+0x408>
    4630: b7 02 00 00 00 00 00 00      	mov64 r2, 0x0
    4638: 73 2a 98 ff 00 00 00 00      	stxb [r10 - 0x68], r2
    4640: 7a 0a 90 ff 00 00 00 00      	stdw [r10 - 0x70], 0x0
    4648: 79 52 20 00 00 00 00 00      	ldxdw r2, [r5 + 0x20]
    4650: 79 31 10 00 00 00 00 00      	ldxdw r1, [r3 + 0x10]
    4658: 79 18 00 00 00 00 00 00      	ldxdw r8, [r1 + 0x0]
    4660: bf 87 00 00 00 00 00 00      	mov64 r7, r8
    4668: 07 07 00 00 08 00 00 00      	add64 r7, 0x8
    4670: bf 71 00 00 00 00 00 00      	mov64 r1, r7
    4678: b7 03 00 00 20 00 00 00      	mov64 r3, 0x20
    4680: bf 56 00 00 00 00 00 00      	mov64 r6, r5
    4688: 85 10 00 00 04 04 00 00      	call 0x404
    4690: 67 00 00 00 20 00 00 00      	lsh64 r0, 0x20
    4698: 77 00 00 00 20 00 00 00      	rsh64 r0, 0x20
    46a0: 55 00 96 ff 00 00 00 00      	jne r0, 0x0, -0x6a <custom_panic+0x128>
    46a8: 71 62 28 00 00 00 00 00      	ldxb r2, [r6 + 0x28]
    46b0: b7 01 00 00 ff ff ff ff      	mov64 r1, -0x1
    46b8: 55 02 01 00 00 00 00 00      	jne r2, 0x0, +0x1 <custom_panic+0x498>
    46c0: b7 01 00 00 88 ff ff ff      	mov64 r1, -0x78
    46c8: 71 82 00 00 00 00 00 00      	ldxb r2, [r8 + 0x0]
    46d0: 5f 21 00 00 00 00 00 00      	and64 r1, r2
    46d8: 57 01 00 00 ff 00 00 00      	and64 r1, 0xff
    46e0: b7 09 00 00 0b 00 00 00      	mov64 r9, 0xb
    46e8: 55 01 8d ff 00 00 00 00      	jne r1, 0x0, -0x73 <custom_panic+0x128>
    46f0: 71 83 01 00 00 00 00 00      	ldxb r3, [r8 + 0x1]
    46f8: b7 02 00 00 01 00 00 00      	mov64 r2, 0x1
    4700: b7 01 00 00 01 00 00 00      	mov64 r1, 0x1
    4708: 55 03 01 00 00 00 00 00      	jne r3, 0x0, +0x1 <custom_panic+0x4e8>
    4710: b7 01 00 00 00 00 00 00      	mov64 r1, 0x0
    4718: 71 86 02 00 00 00 00 00      	ldxb r6, [r8 + 0x2]
    4720: b7 00 00 00 01 00 00 00      	mov64 r0, 0x1
    4728: 79 a5 08 ff 00 00 00 00      	ldxdw r5, [r10 - 0xf8]
    4730: 79 a4 18 ff 00 00 00 00      	ldxdw r4, [r10 - 0xe8]
    4738: 79 a3 10 ff 00 00 00 00      	ldxdw r3, [r10 - 0xf0]
    4740: 55 06 01 00 00 00 00 00      	jne r6, 0x0, +0x1 <custom_panic+0x520>
    4748: b7 00 00 00 00 00 00 00      	mov64 r0, 0x0
    4750: 71 86 03 00 00 00 00 00      	ldxb r6, [r8 + 0x3]
    4758: 55 06 01 00 00 00 00 00      	jne r6, 0x0, +0x1 <custom_panic+0x538>
    4760: b7 02 00 00 00 00 00 00      	mov64 r2, 0x0
    4768: 79 86 50 00 00 00 00 00      	ldxdw r6, [r8 + 0x50]
    4770: bf 89 00 00 00 00 00 00      	mov64 r9, r8
    4778: 07 09 00 00 28 00 00 00      	add64 r9, 0x28
    4780: 7b 9a c0 ff 00 00 00 00      	stxdw [r10 - 0x40], r9
    4788: bf 89 00 00 00 00 00 00      	mov64 r9, r8
    4790: 07 09 00 00 58 00 00 00      	add64 r9, 0x58
    4798: 7b 9a b8 ff 00 00 00 00      	stxdw [r10 - 0x48], r9
    47a0: 7b 6a b0 ff 00 00 00 00      	stxdw [r10 - 0x50], r6
    47a8: 07 08 00 00 48 00 00 00      	add64 r8, 0x48
    47b0: 7b 8a a8 ff 00 00 00 00      	stxdw [r10 - 0x58], r8
    47b8: 7b 7a a0 ff 00 00 00 00      	stxdw [r10 - 0x60], r7
    47c0: 73 2a d2 ff 00 00 00 00      	stxb [r10 - 0x2e], r2
    47c8: 73 0a d1 ff 00 00 00 00      	stxb [r10 - 0x2f], r0
    47d0: 73 1a d0 ff 00 00 00 00      	stxb [r10 - 0x30], r1
    47d8: 7a 0a c8 ff 00 00 00 00      	stdw [r10 - 0x38], 0x0
    47e0: 79 31 00 00 00 00 00 00      	ldxdw r1, [r3 + 0x0]
    47e8: 79 32 08 00 00 00 00 00      	ldxdw r2, [r3 + 0x8]
    47f0: 79 33 10 00 00 00 00 00      	ldxdw r3, [r3 + 0x10]
    47f8: 7b 3a f8 ff 00 00 00 00      	stxdw [r10 - 0x8], r3
    4800: 7b 2a f0 ff 00 00 00 00      	stxdw [r10 - 0x10], r2
    4808: 79 a2 00 ff 00 00 00 00      	ldxdw r2, [r10 - 0x100]
    4810: 7b 2a e8 ff 00 00 00 00      	stxdw [r10 - 0x18], r2
    4818: 79 a2 f8 fe 00 00 00 00      	ldxdw r2, [r10 - 0x108]
    4820: 7b 2a e0 ff 00 00 00 00      	stxdw [r10 - 0x20], r2
    4828: 7b 1a d8 ff 00 00 00 00      	stxdw [r10 - 0x28], r1
    4830: bf a1 00 00 00 00 00 00      	mov64 r1, r10
    4838: 07 01 00 00 d8 ff ff ff      	add64 r1, -0x28
    4840: bf a2 00 00 00 00 00 00      	mov64 r2, r10
    4848: 07 02 00 00 30 ff ff ff      	add64 r2, -0xd0
    4850: b7 03 00 00 03 00 00 00      	mov64 r3, 0x3
    4858: 85 10 00 00 ff ff ff ff      	call -0x1
    4860: b7 09 00 00 1a 00 00 00      	mov64 r9, 0x1a
    4868: 05 00 5d ff 00 00 00 00      	ja -0xa3 <custom_panic+0x128>
    4870: b7 09 00 00 0a 00 00 00      	mov64 r9, 0xa
    4878: 79 20 20 00 00 00 00 00      	ldxdw r0, [r2 + 0x20]
    4880: a5 00 14 00 02 00 00 00      	jlt r0, 0x2, +0x14 <custom_panic+0x6f8>
    4888: 7b 0a 38 ff 00 00 00 00      	stxdw [r10 - 0xc8], r0
    4890: 7b 1a 60 ff 00 00 00 00      	stxdw [r10 - 0xa0], r1
    4898: 7b 4a 50 ff 00 00 00 00      	stxdw [r10 - 0xb0], r4
    48a0: 7b 5a 40 ff 00 00 00 00      	stxdw [r10 - 0xc0], r5
    48a8: 7b 2a 48 ff 00 00 00 00      	stxdw [r10 - 0xb8], r2
    48b0: 79 28 18 00 00 00 00 00      	ldxdw r8, [r2 + 0x18]
    48b8: 79 82 00 00 00 00 00 00      	ldxdw r2, [r8 + 0x0]
    48c0: 7b 3a 58 ff 00 00 00 00      	stxdw [r10 - 0xa8], r3
    48c8: 79 31 00 00 00 00 00 00      	ldxdw r1, [r3 + 0x0]
    48d0: 79 16 00 00 00 00 00 00      	ldxdw r6, [r1 + 0x0]
    48d8: bf 67 00 00 00 00 00 00      	mov64 r7, r6
    48e0: 07 07 00 00 08 00 00 00      	add64 r7, 0x8
    48e8: bf 71 00 00 00 00 00 00      	mov64 r1, r7
    48f0: b7 03 00 00 20 00 00 00      	mov64 r3, 0x20
    48f8: 85 10 00 00 b6 03 00 00      	call 0x3b6
    4900: b7 09 00 00 01 00 00 00      	mov64 r9, 0x1
    4908: 67 00 00 00 20 00 00 00      	lsh64 r0, 0x20
    4910: 77 00 00 00 20 00 00 00      	rsh64 r0, 0x20
    4918: 15 00 03 00 00 00 00 00      	jeq r0, 0x0, +0x3 <custom_panic+0x708>
    4920: 79 a1 60 ff 00 00 00 00      	ldxdw r1, [r10 - 0xa0]
    4928: 63 91 00 00 00 00 00 00      	stxw [r1 + 0x0], r9
    4930: 95 00 00 00 00 00 00 00      	exit
    4938: 7b 8a 30 ff 00 00 00 00      	stxdw [r10 - 0xd0], r8
    4940: 71 82 08 00 00 00 00 00      	ldxb r2, [r8 + 0x8]
    4948: b7 01 00 00 ff ff ff ff      	mov64 r1, -0x1
    4950: 55 02 01 00 00 00 00 00      	jne r2, 0x0, +0x1 <custom_panic+0x730>
    4958: b7 01 00 00 88 ff ff ff      	mov64 r1, -0x78
    4960: 71 62 00 00 00 00 00 00      	ldxb r2, [r6 + 0x0]
    4968: 5f 21 00 00 00 00 00 00      	and64 r1, r2
    4970: 57 01 00 00 ff 00 00 00      	and64 r1, 0xff
    4978: b7 09 00 00 0b 00 00 00      	mov64 r9, 0xb
    4980: 55 01 f3 ff 00 00 00 00      	jne r1, 0x0, -0xd <custom_panic+0x6f0>
    4988: 71 61 01 00 00 00 00 00      	ldxb r1, [r6 + 0x1]
    4990: 71 62 02 00 00 00 00 00      	ldxb r2, [r6 + 0x2]
    4998: 71 64 03 00 00 00 00 00      	ldxb r4, [r6 + 0x3]
    49a0: 79 63 50 00 00 00 00 00      	ldxdw r3, [r6 + 0x50]
    49a8: bf 65 00 00 00 00 00 00      	mov64 r5, r6
    49b0: 07 05 00 00 28 00 00 00      	add64 r5, 0x28
    49b8: 7b 5a 88 ff 00 00 00 00      	stxdw [r10 - 0x78], r5
    49c0: bf 65 00 00 00 00 00 00      	mov64 r5, r6
    49c8: 07 05 00 00 58 00 00 00      	add64 r5, 0x58
    49d0: 7b 5a 80 ff 00 00 00 00      	stxdw [r10 - 0x80], r5
    49d8: 7b 3a 78 ff 00 00 00 00      	stxdw [r10 - 0x88], r3
    49e0: 07 06 00 00 48 00 00 00      	add64 r6, 0x48
    49e8: 7b 6a 70 ff 00 00 00 00      	stxdw [r10 - 0x90], r6
    49f0: 7b 7a 68 ff 00 00 00 00      	stxdw [r10 - 0x98], r7
    49f8: b7 09 00 00 01 00 00 00      	mov64 r9, 0x1
    4a00: b7 03 00 00 01 00 00 00      	mov64 r3, 0x1
    4a08: 55 04 01 00 00 00 00 00      	jne r4, 0x0, +0x1 <custom_panic+0x7e8>
    4a10: b7 03 00 00 00 00 00 00      	mov64 r3, 0x0
    4a18: 73 3a 9a ff 00 00 00 00      	stxb [r10 - 0x66], r3
    4a20: b7 04 00 00 01 00 00 00      	mov64 r4, 0x1
    4a28: 79 a3 58 ff 00 00 00 00      	ldxdw r3, [r10 - 0xa8]
    4a30: 79 a5 30 ff 00 00 00 00      	ldxdw r5, [r10 - 0xd0]
    4a38: 55 02 01 00 00 00 00 00      	jne r2, 0x0, +0x1 <custom_panic+0x818>
    4a40: b7 04 00 00 00 00 00 00      	mov64 r4, 0x0
    4a48: 73 4a 99 ff 00 00 00 00      	stxb [r10 - 0x67], r4
    4a50: b7 02 00 00 01 00 00 00      	mov64 r2, 0x1
    4a58: 55 01 01 00 00 00 00 00      	jne r1, 0x0, +0x1 <custom_panic+0x838>
    4a60: b7 02 00 00 00 00 00 00      	mov64 r2, 0x0
    4a68: 73 2a 98 ff 00 00 00 00      	stxb [r10 - 0x68], r2
    4a70: 7a 0a 90 ff 00 00 00 00      	stdw [r10 - 0x70], 0x0
    4a78: 79 52 10 00 00 00 00 00      	ldxdw r2, [r5 + 0x10]
    4a80: 79 31 08 00 00 00 00 00      	ldxdw r1, [r3 + 0x8]
    4a88: 79 18 00 00 00 00 00 00      	ldxdw r8, [r1 + 0x0]
    4a90: bf 87 00 00 00 00 00 00      	mov64 r7, r8
    4a98: 07 07 00 00 08 00 00 00      	add64 r7, 0x8
    4aa0: bf 71 00 00 00 00 00 00      	mov64 r1, r7
    4aa8: b7 03 00 00 20 00 00 00      	mov64 r3, 0x20
    4ab0: bf 56 00 00 00 00 00 00      	mov64 r6, r5
    4ab8: 85 10 00 00 7e 03 00 00      	call 0x37e
    4ac0: 67 00 00 00 20 00 00 00      	lsh64 r0, 0x20
    4ac8: 77 00 00 00 20 00 00 00      	rsh64 r0, 0x20
    4ad0: 55 00 c9 ff 00 00 00 00      	jne r0, 0x0, -0x37 <custom_panic+0x6f0>
    4ad8: 71 62 18 00 00 00 00 00      	ldxb r2, [r6 + 0x18]
    4ae0: b7 01 00 00 ff ff ff ff      	mov64 r1, -0x1
    4ae8: 55 02 01 00 00 00 00 00      	jne r2, 0x0, +0x1 <custom_panic+0x8c8>
    4af0: b7 01 00 00 88 ff ff ff      	mov64 r1, -0x78
    4af8: 71 82 00 00 00 00 00 00      	ldxb r2, [r8 + 0x0]
    4b00: 5f 21 00 00 00 00 00 00      	and64 r1, r2
    4b08: 57 01 00 00 ff 00 00 00      	and64 r1, 0xff
    4b10: b7 09 00 00 0b 00 00 00      	mov64 r9, 0xb
    4b18: 55 01 c0 ff 00 00 00 00      	jne r1, 0x0, -0x40 <custom_panic+0x6f0>
    4b20: 71 83 01 00 00 00 00 00      	ldxb r3, [r8 + 0x1]
    4b28: b7 02 00 00 01 00 00 00      	mov64 r2, 0x1
    4b30: b7 01 00 00 01 00 00 00      	mov64 r1, 0x1
    4b38: 55 03 01 00 00 00 00 00      	jne r3, 0x0, +0x1 <custom_panic+0x918>
    4b40: b7 01 00 00 00 00 00 00      	mov64 r1, 0x0
    4b48: 71 86 02 00 00 00 00 00      	ldxb r6, [r8 + 0x2]
    4b50: b7 00 00 00 01 00 00 00      	mov64 r0, 0x1
    4b58: 79 a5 40 ff 00 00 00 00      	ldxdw r5, [r10 - 0xc0]
    4b60: 79 a4 50 ff 00 00 00 00      	ldxdw r4, [r10 - 0xb0]
    4b68: 79 a3 48 ff 00 00 00 00      	ldxdw r3, [r10 - 0xb8]
    4b70: 55 06 01 00 00 00 00 00      	jne r6, 0x0, +0x1 <custom_panic+0x950>
    4b78: b7 00 00 00 00 00 00 00      	mov64 r0, 0x0
    4b80: 71 86 03 00 00 00 00 00      	ldxb r6, [r8 + 0x3]
    4b88: 55 06 01 00 00 00 00 00      	jne r6, 0x0, +0x1 <custom_panic+0x968>
    4b90: b7 02 00 00 00 00 00 00      	mov64 r2, 0x0
    4b98: 79 86 50 00 00 00 00 00      	ldxdw r6, [r8 + 0x50]
    4ba0: bf 89 00 00 00 00 00 00      	mov64 r9, r8
    4ba8: 07 09 00 00 28 00 00 00      	add64 r9, 0x28
    4bb0: 7b 9a c0 ff 00 00 00 00      	stxdw [r10 - 0x40], r9
    4bb8: bf 89 00 00 00 00 00 00      	mov64 r9, r8
    4bc0: 07 09 00 00 58 00 00 00      	add64 r9, 0x58
    4bc8: 7b 9a b8 ff 00 00 00 00      	stxdw [r10 - 0x48], r9
    4bd0: 7b 6a b0 ff 00 00 00 00      	stxdw [r10 - 0x50], r6
    4bd8: 07 08 00 00 48 00 00 00      	add64 r8, 0x48
    4be0: 7b 8a a8 ff 00 00 00 00      	stxdw [r10 - 0x58], r8
    4be8: 7b 7a a0 ff 00 00 00 00      	stxdw [r10 - 0x60], r7
    4bf0: 73 2a d2 ff 00 00 00 00      	stxb [r10 - 0x2e], r2
    4bf8: 73 0a d1 ff 00 00 00 00      	stxb [r10 - 0x2f], r0
    4c00: 73 1a d0 ff 00 00 00 00      	stxb [r10 - 0x30], r1
    4c08: 7a 0a c8 ff 00 00 00 00      	stdw [r10 - 0x38], 0x0
    4c10: 79 31 00 00 00 00 00 00      	ldxdw r1, [r3 + 0x0]
    4c18: 79 32 08 00 00 00 00 00      	ldxdw r2, [r3 + 0x8]
    4c20: 79 33 10 00 00 00 00 00      	ldxdw r3, [r3 + 0x10]
    4c28: 7b 3a f8 ff 00 00 00 00      	stxdw [r10 - 0x8], r3
    4c30: 7b 2a f0 ff 00 00 00 00      	stxdw [r10 - 0x10], r2
    4c38: 79 a2 38 ff 00 00 00 00      	ldxdw r2, [r10 - 0xc8]
    4c40: 7b 2a e8 ff 00 00 00 00      	stxdw [r10 - 0x18], r2
    4c48: 79 a2 30 ff 00 00 00 00      	ldxdw r2, [r10 - 0xd0]
    4c50: 7b 2a e0 ff 00 00 00 00      	stxdw [r10 - 0x20], r2
    4c58: 7b 1a d8 ff 00 00 00 00      	stxdw [r10 - 0x28], r1
    4c60: bf a1 00 00 00 00 00 00      	mov64 r1, r10
    4c68: 07 01 00 00 d8 ff ff ff      	add64 r1, -0x28
    4c70: bf a2 00 00 00 00 00 00      	mov64 r2, r10
    4c78: 07 02 00 00 68 ff ff ff      	add64 r2, -0x98
    4c80: b7 03 00 00 02 00 00 00      	mov64 r3, 0x2
    4c88: 85 10 00 00 ff ff ff ff      	call -0x1
    4c90: b7 09 00 00 1a 00 00 00      	mov64 r9, 0x1a
    4c98: 05 00 90 ff 00 00 00 00      	ja -0x70 <custom_panic+0x6f0>
    4ca0: bf 45 00 00 00 00 00 00      	mov64 r5, r4
    4ca8: bf 34 00 00 00 00 00 00      	mov64 r4, r3
    4cb0: bf 16 00 00 00 00 00 00      	mov64 r6, r1
    4cb8: 79 21 10 00 00 00 00 00      	ldxdw r1, [r2 + 0x10]
    4cc0: 79 17 00 00 00 00 00 00      	ldxdw r7, [r1 + 0x0]
    4cc8: 07 07 00 00 08 00 00 00      	add64 r7, 0x8
    4cd0: 79 23 00 00 00 00 00 00      	ldxdw r3, [r2 + 0x0]
    4cd8: 79 38 00 00 00 00 00 00      	ldxdw r8, [r3 + 0x0]
    4ce0: 79 20 08 00 00 00 00 00      	ldxdw r0, [r2 + 0x8]
    4ce8: 79 09 00 00 00 00 00 00      	ldxdw r9, [r0 + 0x0]
    4cf0: 7b 7a a0 ff 00 00 00 00      	stxdw [r10 - 0x60], r7
    4cf8: 07 09 00 00 08 00 00 00      	add64 r9, 0x8
    4d00: 7b 9a 90 ff 00 00 00 00      	stxdw [r10 - 0x70], r9
    4d08: 07 08 00 00 08 00 00 00      	add64 r8, 0x8
    4d10: 7b 8a 80 ff 00 00 00 00      	stxdw [r10 - 0x80], r8
    4d18: 6a 0a a8 ff 00 01 00 00      	sth [r10 - 0x58], 0x100
    4d20: 6a 0a 98 ff 01 00 00 00      	sth [r10 - 0x68], 0x1
    4d28: 6a 0a 88 ff 01 00 00 00      	sth [r10 - 0x78], 0x1
    4d30: 72 0a b7 ff 08 00 00 00      	stb [r10 - 0x49], 0x8
    4d38: 79 22 18 00 00 00 00 00      	ldxdw r2, [r2 + 0x18]
    4d40: 7b 2a b8 ff 00 00 00 00      	stxdw [r10 - 0x48], r2
    4d48: bf a2 00 00 00 00 00 00      	mov64 r2, r10
    4d50: 07 02 00 00 80 ff ff ff      	add64 r2, -0x80
    4d58: 7b 2a d8 ff 00 00 00 00      	stxdw [r10 - 0x28], r2
    4d60: bf a2 00 00 00 00 00 00      	mov64 r2, r10
    4d68: 07 02 00 00 b7 ff ff ff      	add64 r2, -0x49
    4d70: 7b 2a c8 ff 00 00 00 00      	stxdw [r10 - 0x38], r2
    4d78: 18 02 00 00 3e 67 00 00 00 00 00 00 00 00 00 00      	lddw r2, 0x673e
    4d88: 7b 2a c0 ff 00 00 00 00      	stxdw [r10 - 0x40], r2
    4d90: 7a 0a e0 ff 03 00 00 00      	stdw [r10 - 0x20], 0x3
    4d98: 7a 0a d0 ff 09 00 00 00      	stdw [r10 - 0x30], 0x9
    4da0: 7b 1a f8 ff 00 00 00 00      	stxdw [r10 - 0x8], r1
    4da8: 7b 0a f0 ff 00 00 00 00      	stxdw [r10 - 0x10], r0
    4db0: 7b 3a e8 ff 00 00 00 00      	stxdw [r10 - 0x18], r3
    4db8: bf a1 00 00 00 00 00 00      	mov64 r1, r10
    4dc0: 07 01 00 00 78 ff ff ff      	add64 r1, -0x88
    4dc8: bf a2 00 00 00 00 00 00      	mov64 r2, r10
    4dd0: 07 02 00 00 c0 ff ff ff      	add64 r2, -0x40
    4dd8: bf a3 00 00 00 00 00 00      	mov64 r3, r10
    4de0: 07 03 00 00 e8 ff ff ff      	add64 r3, -0x18
    4de8: 85 10 00 00 97 fe ff ff      	call -0x169
    4df0: 79 a1 78 ff 00 00 00 00      	ldxdw r1, [r10 - 0x88]
    4df8: 7b 16 00 00 00 00 00 00      	stxdw [r6 + 0x0], r1
    4e00: 95 00 00 00 00 00 00 00      	exit
    4e08: bf 45 00 00 00 00 00 00      	mov64 r5, r4
    4e10: bf 34 00 00 00 00 00 00      	mov64 r4, r3
    4e18: bf 16 00 00 00 00 00 00      	mov64 r6, r1
    4e20: 79 21 08 00 00 00 00 00      	ldxdw r1, [r2 + 0x8]
    4e28: 79 10 00 00 00 00 00 00      	ldxdw r0, [r1 + 0x0]
    4e30: 07 00 00 00 08 00 00 00      	add64 r0, 0x8
    4e38: 79 23 00 00 00 00 00 00      	ldxdw r3, [r2 + 0x0]
    4e40: 79 37 00 00 00 00 00 00      	ldxdw r7, [r3 + 0x0]
    4e48: 7b 0a 90 ff 00 00 00 00      	stxdw [r10 - 0x70], r0
    4e50: 07 07 00 00 08 00 00 00      	add64 r7, 0x8
    4e58: 7b 7a 80 ff 00 00 00 00      	stxdw [r10 - 0x80], r7
    4e60: 6a 0a 98 ff 00 00 00 00      	sth [r10 - 0x68], 0x0
    4e68: 6a 0a 88 ff 01 00 00 00      	sth [r10 - 0x78], 0x1
    4e70: 72 0a a7 ff 12 00 00 00      	stb [r10 - 0x59], 0x12
    4e78: 79 22 10 00 00 00 00 00      	ldxdw r2, [r2 + 0x10]
    4e80: 71 20 00 00 00 00 00 00      	ldxb r0, [r2 + 0x0]
    4e88: 73 0a a8 ff 00 00 00 00      	stxb [r10 - 0x58], r0
    4e90: 71 20 01 00 00 00 00 00      	ldxb r0, [r2 + 0x1]
    4e98: 73 0a a9 ff 00 00 00 00      	stxb [r10 - 0x57], r0
    4ea0: 71 20 02 00 00 00 00 00      	ldxb r0, [r2 + 0x2]
    4ea8: 73 0a aa ff 00 00 00 00      	stxb [r10 - 0x56], r0
    4eb0: 71 20 03 00 00 00 00 00      	ldxb r0, [r2 + 0x3]
    4eb8: 73 0a ab ff 00 00 00 00      	stxb [r10 - 0x55], r0
    4ec0: 71 20 04 00 00 00 00 00      	ldxb r0, [r2 + 0x4]
    4ec8: 73 0a ac ff 00 00 00 00      	stxb [r10 - 0x54], r0
    4ed0: 71 20 05 00 00 00 00 00      	ldxb r0, [r2 + 0x5]
    4ed8: 73 0a ad ff 00 00 00 00      	stxb [r10 - 0x53], r0
    4ee0: 71 20 06 00 00 00 00 00      	ldxb r0, [r2 + 0x6]
    4ee8: 73 0a ae ff 00 00 00 00      	stxb [r10 - 0x52], r0
    4ef0: 71 20 07 00 00 00 00 00      	ldxb r0, [r2 + 0x7]
    4ef8: 73 0a af ff 00 00 00 00      	stxb [r10 - 0x51], r0
    4f00: 71 20 08 00 00 00 00 00      	ldxb r0, [r2 + 0x8]
    4f08: 73 0a b0 ff 00 00 00 00      	stxb [r10 - 0x50], r0
    4f10: 71 20 09 00 00 00 00 00      	ldxb r0, [r2 + 0x9]
    4f18: 73 0a b1 ff 00 00 00 00      	stxb [r10 - 0x4f], r0
    4f20: 71 20 0a 00 00 00 00 00      	ldxb r0, [r2 + 0xa]
    4f28: 73 0a b2 ff 00 00 00 00      	stxb [r10 - 0x4e], r0
    4f30: 71 20 0b 00 00 00 00 00      	ldxb r0, [r2 + 0xb]
    4f38: 73 0a b3 ff 00 00 00 00      	stxb [r10 - 0x4d], r0
    4f40: 71 20 0c 00 00 00 00 00      	ldxb r0, [r2 + 0xc]
    4f48: 73 0a b4 ff 00 00 00 00      	stxb [r10 - 0x4c], r0
    4f50: 71 20 0d 00 00 00 00 00      	ldxb r0, [r2 + 0xd]
    4f58: 73 0a b5 ff 00 00 00 00      	stxb [r10 - 0x4b], r0
    4f60: 71 20 0e 00 00 00 00 00      	ldxb r0, [r2 + 0xe]
    4f68: 73 0a b6 ff 00 00 00 00      	stxb [r10 - 0x4a], r0
    4f70: 71 20 0f 00 00 00 00 00      	ldxb r0, [r2 + 0xf]
    4f78: 73 0a b7 ff 00 00 00 00      	stxb [r10 - 0x49], r0
    4f80: 71 20 10 00 00 00 00 00      	ldxb r0, [r2 + 0x10]
    4f88: 73 0a b8 ff 00 00 00 00      	stxb [r10 - 0x48], r0
    4f90: 71 20 11 00 00 00 00 00      	ldxb r0, [r2 + 0x11]
    4f98: 73 0a b9 ff 00 00 00 00      	stxb [r10 - 0x47], r0
    4fa0: 71 20 12 00 00 00 00 00      	ldxb r0, [r2 + 0x12]
    4fa8: 73 0a ba ff 00 00 00 00      	stxb [r10 - 0x46], r0
    4fb0: 71 20 13 00 00 00 00 00      	ldxb r0, [r2 + 0x13]
    4fb8: 73 0a bb ff 00 00 00 00      	stxb [r10 - 0x45], r0
    4fc0: 71 20 14 00 00 00 00 00      	ldxb r0, [r2 + 0x14]
    4fc8: 73 0a bc ff 00 00 00 00      	stxb [r10 - 0x44], r0
    4fd0: 71 20 15 00 00 00 00 00      	ldxb r0, [r2 + 0x15]
    4fd8: 73 0a bd ff 00 00 00 00      	stxb [r10 - 0x43], r0
    4fe0: 71 20 16 00 00 00 00 00      	ldxb r0, [r2 + 0x16]
    4fe8: 73 0a be ff 00 00 00 00      	stxb [r10 - 0x42], r0
    4ff0: 71 20 17 00 00 00 00 00      	ldxb r0, [r2 + 0x17]
    4ff8: 73 0a bf ff 00 00 00 00      	stxb [r10 - 0x41], r0
    5000: 71 20 18 00 00 00 00 00      	ldxb r0, [r2 + 0x18]
    5008: 73 0a c0 ff 00 00 00 00      	stxb [r10 - 0x40], r0
    5010: 71 20 19 00 00 00 00 00      	ldxb r0, [r2 + 0x19]
    5018: 73 0a c1 ff 00 00 00 00      	stxb [r10 - 0x3f], r0
    5020: 71 20 1a 00 00 00 00 00      	ldxb r0, [r2 + 0x1a]
    5028: 73 0a c2 ff 00 00 00 00      	stxb [r10 - 0x3e], r0
    5030: 71 20 1b 00 00 00 00 00      	ldxb r0, [r2 + 0x1b]
    5038: 73 0a c3 ff 00 00 00 00      	stxb [r10 - 0x3d], r0
    5040: 71 20 1c 00 00 00 00 00      	ldxb r0, [r2 + 0x1c]
    5048: 73 0a c4 ff 00 00 00 00      	stxb [r10 - 0x3c], r0
    5050: 71 20 1d 00 00 00 00 00      	ldxb r0, [r2 + 0x1d]
    5058: 73 0a c5 ff 00 00 00 00      	stxb [r10 - 0x3b], r0
    5060: 71 20 1e 00 00 00 00 00      	ldxb r0, [r2 + 0x1e]
    5068: 73 0a c6 ff 00 00 00 00      	stxb [r10 - 0x3a], r0
    5070: 71 22 1f 00 00 00 00 00      	ldxb r2, [r2 + 0x1f]
    5078: 73 2a c7 ff 00 00 00 00      	stxb [r10 - 0x39], r2
    5080: bf a2 00 00 00 00 00 00      	mov64 r2, r10
    5088: 07 02 00 00 80 ff ff ff      	add64 r2, -0x80
    5090: 7b 2a e0 ff 00 00 00 00      	stxdw [r10 - 0x20], r2
    5098: bf a2 00 00 00 00 00 00      	mov64 r2, r10
    50a0: 07 02 00 00 a7 ff ff ff      	add64 r2, -0x59
    50a8: 7b 2a d0 ff 00 00 00 00      	stxdw [r10 - 0x30], r2
    50b0: 18 02 00 00 3e 67 00 00 00 00 00 00 00 00 00 00      	lddw r2, 0x673e
    50c0: 7b 2a c8 ff 00 00 00 00      	stxdw [r10 - 0x38], r2
    50c8: 7a 0a e8 ff 02 00 00 00      	stdw [r10 - 0x18], 0x2
    50d0: 7a 0a d8 ff 21 00 00 00      	stdw [r10 - 0x28], 0x21
    50d8: 7b 1a f8 ff 00 00 00 00      	stxdw [r10 - 0x8], r1
    50e0: 7b 3a f0 ff 00 00 00 00      	stxdw [r10 - 0x10], r3
    50e8: bf a1 00 00 00 00 00 00      	mov64 r1, r10
    50f0: 07 01 00 00 78 ff ff ff      	add64 r1, -0x88
    50f8: bf a2 00 00 00 00 00 00      	mov64 r2, r10
    5100: 07 02 00 00 c8 ff ff ff      	add64 r2, -0x38
    5108: bf a3 00 00 00 00 00 00      	mov64 r3, r10
    5110: 07 03 00 00 f0 ff ff ff      	add64 r3, -0x10
    5118: 85 10 00 00 ea fe ff ff      	call -0x116
    5120: 79 a1 78 ff 00 00 00 00      	ldxdw r1, [r10 - 0x88]
    5128: 7b 16 00 00 00 00 00 00      	stxdw [r6 + 0x0], r1
    5130: 95 00 00 00 00 00 00 00      	exit
    5138: 7b 4a 40 ff 00 00 00 00      	stxdw [r10 - 0xc0], r4
    5140: bf 38 00 00 00 00 00 00      	mov64 r8, r3
    5148: bf 16 00 00 00 00 00 00      	mov64 r6, r1
    5150: 79 21 00 00 00 00 00 00      	ldxdw r1, [r2 + 0x0]
    5158: 79 13 00 00 00 00 00 00      	ldxdw r3, [r1 + 0x0]
    5160: 07 03 00 00 08 00 00 00      	add64 r3, 0x8
    5168: 7b 3a 48 ff 00 00 00 00      	stxdw [r10 - 0xb8], r3
    5170: 6a 0a 50 ff 01 00 00 00      	sth [r10 - 0xb0], 0x1
    5178: 72 0a 5d ff 14 00 00 00      	stb [r10 - 0xa3], 0x14
    5180: 71 23 18 00 00 00 00 00      	ldxb r3, [r2 + 0x18]
    5188: 73 3a 5e ff 00 00 00 00      	stxb [r10 - 0xa2], r3
    5190: 79 23 08 00 00 00 00 00      	ldxdw r3, [r2 + 0x8]
    5198: 71 34 00 00 00 00 00 00      	ldxb r4, [r3 + 0x0]
    51a0: 73 4a 5f ff 00 00 00 00      	stxb [r10 - 0xa1], r4
    51a8: 71 34 01 00 00 00 00 00      	ldxb r4, [r3 + 0x1]
    51b0: 73 4a 60 ff 00 00 00 00      	stxb [r10 - 0xa0], r4
    51b8: 71 34 02 00 00 00 00 00      	ldxb r4, [r3 + 0x2]
    51c0: 73 4a 61 ff 00 00 00 00      	stxb [r10 - 0x9f], r4
    51c8: 71 34 03 00 00 00 00 00      	ldxb r4, [r3 + 0x3]
    51d0: 73 4a 62 ff 00 00 00 00      	stxb [r10 - 0x9e], r4
    51d8: 71 34 04 00 00 00 00 00      	ldxb r4, [r3 + 0x4]
    51e0: 73 4a 63 ff 00 00 00 00      	stxb [r10 - 0x9d], r4
    51e8: 71 34 05 00 00 00 00 00      	ldxb r4, [r3 + 0x5]
    51f0: 73 4a 64 ff 00 00 00 00      	stxb [r10 - 0x9c], r4
    51f8: 71 34 06 00 00 00 00 00      	ldxb r4, [r3 + 0x6]
    5200: 73 4a 65 ff 00 00 00 00      	stxb [r10 - 0x9b], r4
    5208: 71 34 07 00 00 00 00 00      	ldxb r4, [r3 + 0x7]
    5210: 73 4a 66 ff 00 00 00 00      	stxb [r10 - 0x9a], r4
    5218: 71 34 08 00 00 00 00 00      	ldxb r4, [r3 + 0x8]
    5220: 73 4a 67 ff 00 00 00 00      	stxb [r10 - 0x99], r4
    5228: 71 34 09 00 00 00 00 00      	ldxb r4, [r3 + 0x9]
    5230: 73 4a 68 ff 00 00 00 00      	stxb [r10 - 0x98], r4
    5238: 71 34 0a 00 00 00 00 00      	ldxb r4, [r3 + 0xa]
    5240: 73 4a 69 ff 00 00 00 00      	stxb [r10 - 0x97], r4
    5248: 71 34 0b 00 00 00 00 00      	ldxb r4, [r3 + 0xb]
    5250: 73 4a 6a ff 00 00 00 00      	stxb [r10 - 0x96], r4
    5258: 71 34 0c 00 00 00 00 00      	ldxb r4, [r3 + 0xc]
    5260: 73 4a 6b ff 00 00 00 00      	stxb [r10 - 0x95], r4
    5268: 71 34 0d 00 00 00 00 00      	ldxb r4, [r3 + 0xd]
    5270: 73 4a 6c ff 00 00 00 00      	stxb [r10 - 0x94], r4
    5278: 71 34 0e 00 00 00 00 00      	ldxb r4, [r3 + 0xe]
    5280: 73 4a 6d ff 00 00 00 00      	stxb [r10 - 0x93], r4
    5288: 71 34 0f 00 00 00 00 00      	ldxb r4, [r3 + 0xf]
    5290: 73 4a 6e ff 00 00 00 00      	stxb [r10 - 0x92], r4
    5298: 71 34 10 00 00 00 00 00      	ldxb r4, [r3 + 0x10]
    52a0: 73 4a 6f ff 00 00 00 00      	stxb [r10 - 0x91], r4
    52a8: 71 34 11 00 00 00 00 00      	ldxb r4, [r3 + 0x11]
    52b0: 73 4a 70 ff 00 00 00 00      	stxb [r10 - 0x90], r4
    52b8: 71 34 12 00 00 00 00 00      	ldxb r4, [r3 + 0x12]
    52c0: 73 4a 71 ff 00 00 00 00      	stxb [r10 - 0x8f], r4
    52c8: 71 34 13 00 00 00 00 00      	ldxb r4, [r3 + 0x13]
    52d0: 73 4a 72 ff 00 00 00 00      	stxb [r10 - 0x8e], r4
    52d8: 71 34 14 00 00 00 00 00      	ldxb r4, [r3 + 0x14]
    52e0: 73 4a 73 ff 00 00 00 00      	stxb [r10 - 0x8d], r4
    52e8: 71 34 15 00 00 00 00 00      	ldxb r4, [r3 + 0x15]
    52f0: 73 4a 74 ff 00 00 00 00      	stxb [r10 - 0x8c], r4
    52f8: 71 34 16 00 00 00 00 00      	ldxb r4, [r3 + 0x16]
    5300: 73 4a 75 ff 00 00 00 00      	stxb [r10 - 0x8b], r4
    5308: 71 34 17 00 00 00 00 00      	ldxb r4, [r3 + 0x17]
    5310: 73 4a 76 ff 00 00 00 00      	stxb [r10 - 0x8a], r4
    5318: 71 34 18 00 00 00 00 00      	ldxb r4, [r3 + 0x18]
    5320: 73 4a 77 ff 00 00 00 00      	stxb [r10 - 0x89], r4
    5328: 71 34 19 00 00 00 00 00      	ldxb r4, [r3 + 0x19]
    5330: 73 4a 78 ff 00 00 00 00      	stxb [r10 - 0x88], r4
    5338: 71 34 1a 00 00 00 00 00      	ldxb r4, [r3 + 0x1a]
    5340: 73 4a 79 ff 00 00 00 00      	stxb [r10 - 0x87], r4
    5348: 71 34 1b 00 00 00 00 00      	ldxb r4, [r3 + 0x1b]
    5350: 73 4a 7a ff 00 00 00 00      	stxb [r10 - 0x86], r4
    5358: 71 34 1c 00 00 00 00 00      	ldxb r4, [r3 + 0x1c]
    5360: 73 4a 7b ff 00 00 00 00      	stxb [r10 - 0x85], r4
    5368: 71 34 1d 00 00 00 00 00      	ldxb r4, [r3 + 0x1d]
    5370: 73 4a 7c ff 00 00 00 00      	stxb [r10 - 0x84], r4
    5378: 71 34 1e 00 00 00 00 00      	ldxb r4, [r3 + 0x1e]
    5380: 73 4a 7d ff 00 00 00 00      	stxb [r10 - 0x83], r4
    5388: 71 33 1f 00 00 00 00 00      	ldxb r3, [r3 + 0x1f]
    5390: 73 3a 7e ff 00 00 00 00      	stxb [r10 - 0x82], r3
    5398: 79 22 10 00 00 00 00 00      	ldxdw r2, [r2 + 0x10]
    53a0: 15 02 42 00 00 00 00 00      	jeq r2, 0x0, +0x42 <custom_panic+0x1388>
    53a8: 72 0a 7f ff 01 00 00 00      	stb [r10 - 0x81], 0x1
    53b0: 71 23 00 00 00 00 00 00      	ldxb r3, [r2 + 0x0]
    53b8: 73 3a 80 ff 00 00 00 00      	stxb [r10 - 0x80], r3
    53c0: 71 23 01 00 00 00 00 00      	ldxb r3, [r2 + 0x1]
    53c8: 73 3a 81 ff 00 00 00 00      	stxb [r10 - 0x7f], r3
    53d0: 71 23 02 00 00 00 00 00      	ldxb r3, [r2 + 0x2]
    53d8: 73 3a 82 ff 00 00 00 00      	stxb [r10 - 0x7e], r3
    53e0: 71 23 03 00 00 00 00 00      	ldxb r3, [r2 + 0x3]
    53e8: 73 3a 83 ff 00 00 00 00      	stxb [r10 - 0x7d], r3
    53f0: 71 23 04 00 00 00 00 00      	ldxb r3, [r2 + 0x4]
    53f8: 73 3a 84 ff 00 00 00 00      	stxb [r10 - 0x7c], r3
    5400: 71 23 05 00 00 00 00 00      	ldxb r3, [r2 + 0x5]
    5408: 73 3a 85 ff 00 00 00 00      	stxb [r10 - 0x7b], r3
    5410: 71 23 06 00 00 00 00 00      	ldxb r3, [r2 + 0x6]
    5418: 73 3a 86 ff 00 00 00 00      	stxb [r10 - 0x7a], r3
    5420: 71 23 07 00 00 00 00 00      	ldxb r3, [r2 + 0x7]
    5428: 73 3a 87 ff 00 00 00 00      	stxb [r10 - 0x79], r3
    5430: 71 23 08 00 00 00 00 00      	ldxb r3, [r2 + 0x8]
    5438: 73 3a 88 ff 00 00 00 00      	stxb [r10 - 0x78], r3
    5440: 71 23 09 00 00 00 00 00      	ldxb r3, [r2 + 0x9]
    5448: 73 3a 89 ff 00 00 00 00      	stxb [r10 - 0x77], r3
    5450: 71 23 0a 00 00 00 00 00      	ldxb r3, [r2 + 0xa]
    5458: 73 3a 8a ff 00 00 00 00      	stxb [r10 - 0x76], r3
    5460: 71 23 0b 00 00 00 00 00      	ldxb r3, [r2 + 0xb]
    5468: 73 3a 8b ff 00 00 00 00      	stxb [r10 - 0x75], r3
    5470: 71 23 0c 00 00 00 00 00      	ldxb r3, [r2 + 0xc]
    5478: 73 3a 8c ff 00 00 00 00      	stxb [r10 - 0x74], r3
    5480: 71 23 0d 00 00 00 00 00      	ldxb r3, [r2 + 0xd]
    5488: 73 3a 8d ff 00 00 00 00      	stxb [r10 - 0x73], r3
    5490: 71 23 0e 00 00 00 00 00      	ldxb r3, [r2 + 0xe]
    5498: 73 3a 8e ff 00 00 00 00      	stxb [r10 - 0x72], r3
    54a0: 71 23 0f 00 00 00 00 00      	ldxb r3, [r2 + 0xf]
    54a8: 73 3a 8f ff 00 00 00 00      	stxb [r10 - 0x71], r3
    54b0: 71 23 10 00 00 00 00 00      	ldxb r3, [r2 + 0x10]
    54b8: 73 3a 90 ff 00 00 00 00      	stxb [r10 - 0x70], r3
    54c0: 71 23 11 00 00 00 00 00      	ldxb r3, [r2 + 0x11]
    54c8: 73 3a 91 ff 00 00 00 00      	stxb [r10 - 0x6f], r3
    54d0: 71 23 12 00 00 00 00 00      	ldxb r3, [r2 + 0x12]
    54d8: 73 3a 92 ff 00 00 00 00      	stxb [r10 - 0x6e], r3
    54e0: 71 23 13 00 00 00 00 00      	ldxb r3, [r2 + 0x13]
    54e8: 73 3a 93 ff 00 00 00 00      	stxb [r10 - 0x6d], r3
    54f0: 71 23 14 00 00 00 00 00      	ldxb r3, [r2 + 0x14]
    54f8: 73 3a 94 ff 00 00 00 00      	stxb [r10 - 0x6c], r3
    5500: 71 23 15 00 00 00 00 00      	ldxb r3, [r2 + 0x15]
    5508: 73 3a 95 ff 00 00 00 00      	stxb [r10 - 0x6b], r3
    5510: 71 23 16 00 00 00 00 00      	ldxb r3, [r2 + 0x16]
    5518: 73 3a 96 ff 00 00 00 00      	stxb [r10 - 0x6a], r3
    5520: 71 23 17 00 00 00 00 00      	ldxb r3, [r2 + 0x17]
    5528: 73 3a 97 ff 00 00 00 00      	stxb [r10 - 0x69], r3
    5530: 71 23 18 00 00 00 00 00      	ldxb r3, [r2 + 0x18]
    5538: 73 3a 98 ff 00 00 00 00      	stxb [r10 - 0x68], r3
    5540: 71 23 19 00 00 00 00 00      	ldxb r3, [r2 + 0x19]
    5548: 73 3a 99 ff 00 00 00 00      	stxb [r10 - 0x67], r3
    5550: 71 23 1a 00 00 00 00 00      	ldxb r3, [r2 + 0x1a]
    5558: 73 3a 9a ff 00 00 00 00      	stxb [r10 - 0x66], r3
    5560: 71 23 1b 00 00 00 00 00      	ldxb r3, [r2 + 0x1b]
    5568: 73 3a 9b ff 00 00 00 00      	stxb [r10 - 0x65], r3
    5570: 71 23 1c 00 00 00 00 00      	ldxb r3, [r2 + 0x1c]
    5578: 73 3a 9c ff 00 00 00 00      	stxb [r10 - 0x64], r3
    5580: 71 23 1d 00 00 00 00 00      	ldxb r3, [r2 + 0x1d]
    5588: 73 3a 9d ff 00 00 00 00      	stxb [r10 - 0x63], r3
    5590: 71 23 1e 00 00 00 00 00      	ldxb r3, [r2 + 0x1e]
    5598: 73 3a 9e ff 00 00 00 00      	stxb [r10 - 0x62], r3
    55a0: 71 22 1f 00 00 00 00 00      	ldxb r2, [r2 + 0x1f]
    55a8: 73 2a 9f ff 00 00 00 00      	stxb [r10 - 0x61], r2
    55b0: 05 00 01 00 00 00 00 00      	ja +0x1 <custom_panic+0x1390>
    55b8: 72 0a 7f ff 00 00 00 00      	stb [r10 - 0x81], 0x0
    55c0: 79 17 00 00 00 00 00 00      	ldxdw r7, [r1 + 0x0]
    55c8: 79 a2 48 ff 00 00 00 00      	ldxdw r2, [r10 - 0xb8]
    55d0: bf 79 00 00 00 00 00 00      	mov64 r9, r7
    55d8: 07 09 00 00 08 00 00 00      	add64 r9, 0x8
    55e0: bf 91 00 00 00 00 00 00      	mov64 r1, r9
    55e8: b7 03 00 00 20 00 00 00      	mov64 r3, 0x20
    55f0: 85 10 00 00 17 02 00 00      	call 0x217
    55f8: b7 01 00 00 01 00 00 00      	mov64 r1, 0x1
    5600: 67 00 00 00 20 00 00 00      	lsh64 r0, 0x20
    5608: 77 00 00 00 20 00 00 00      	rsh64 r0, 0x20
    5610: 55 00 38 00 00 00 00 00      	jne r0, 0x0, +0x38 <custom_panic+0x15a8>
    5618: b7 02 00 00 ff ff ff ff      	mov64 r2, -0x1
    5620: 71 a1 50 ff 00 00 00 00      	ldxb r1, [r10 - 0xb0]
    5628: 55 01 01 00 00 00 00 00      	jne r1, 0x0, +0x1 <custom_panic+0x1408>
    5630: b7 02 00 00 88 ff ff ff      	mov64 r2, -0x78
    5638: 71 71 00 00 00 00 00 00      	ldxb r1, [r7 + 0x0]
    5640: 5f 12 00 00 00 00 00 00      	and64 r2, r1
    5648: b7 01 00 00 0b 00 00 00      	mov64 r1, 0xb
    5650: 57 02 00 00 ff 00 00 00      	and64 r2, 0xff
    5658: 55 02 2f 00 00 00 00 00      	jne r2, 0x0, +0x2f <custom_panic+0x15a8>
    5660: 71 71 01 00 00 00 00 00      	ldxb r1, [r7 + 0x1]
    5668: 71 72 02 00 00 00 00 00      	ldxb r2, [r7 + 0x2]
    5670: 71 74 03 00 00 00 00 00      	ldxb r4, [r7 + 0x3]
    5678: 79 73 50 00 00 00 00 00      	ldxdw r3, [r7 + 0x50]
    5680: bf 75 00 00 00 00 00 00      	mov64 r5, r7
    5688: 07 05 00 00 28 00 00 00      	add64 r5, 0x28
    5690: 7b 5a c0 ff 00 00 00 00      	stxdw [r10 - 0x40], r5
    5698: bf 75 00 00 00 00 00 00      	mov64 r5, r7
    56a0: 07 05 00 00 58 00 00 00      	add64 r5, 0x58
    56a8: 7b 5a b8 ff 00 00 00 00      	stxdw [r10 - 0x48], r5
    56b0: 7b 3a b0 ff 00 00 00 00      	stxdw [r10 - 0x50], r3
    56b8: 07 07 00 00 48 00 00 00      	add64 r7, 0x48
    56c0: 7b 7a a8 ff 00 00 00 00      	stxdw [r10 - 0x58], r7
    56c8: 7b 9a a0 ff 00 00 00 00      	stxdw [r10 - 0x60], r9
    56d0: b7 03 00 00 01 00 00 00      	mov64 r3, 0x1
    56d8: 55 04 01 00 00 00 00 00      	jne r4, 0x0, +0x1 <custom_panic+0x14b8>
    56e0: b7 03 00 00 00 00 00 00      	mov64 r3, 0x0
    56e8: 73 3a d2 ff 00 00 00 00      	stxb [r10 - 0x2e], r3
    56f0: b7 03 00 00 01 00 00 00      	mov64 r3, 0x1
    56f8: 55 02 01 00 00 00 00 00      	jne r2, 0x0, +0x1 <custom_panic+0x14d8>
    5700: b7 03 00 00 00 00 00 00      	mov64 r3, 0x0
    5708: 73 3a d1 ff 00 00 00 00      	stxb [r10 - 0x2f], r3
    5710: b7 02 00 00 01 00 00 00      	mov64 r2, 0x1
    5718: 55 01 01 00 00 00 00 00      	jne r1, 0x0, +0x1 <custom_panic+0x14f8>
    5720: b7 02 00 00 00 00 00 00      	mov64 r2, 0x0
    5728: 73 2a d0 ff 00 00 00 00      	stxb [r10 - 0x30], r2
    5730: 7a 0a c8 ff 00 00 00 00      	stdw [r10 - 0x38], 0x0
    5738: bf a1 00 00 00 00 00 00      	mov64 r1, r10
    5740: 07 01 00 00 5d ff ff ff      	add64 r1, -0xa3
    5748: 7b 1a f0 ff 00 00 00 00      	stxdw [r10 - 0x10], r1
    5750: bf a1 00 00 00 00 00 00      	mov64 r1, r10
    5758: 07 01 00 00 48 ff ff ff      	add64 r1, -0xb8
    5760: 7b 1a e0 ff 00 00 00 00      	stxdw [r10 - 0x20], r1
    5768: 18 01 00 00 3e 67 00 00 00 00 00 00 00 00 00 00      	lddw r1, 0x673e
    5778: 7b 1a d8 ff 00 00 00 00      	stxdw [r10 - 0x28], r1
    5780: 7a 0a f8 ff 43 00 00 00      	stdw [r10 - 0x8], 0x43
    5788: 7a 0a e8 ff 01 00 00 00      	stdw [r10 - 0x18], 0x1
    5790: bf a1 00 00 00 00 00 00      	mov64 r1, r10
    5798: 07 01 00 00 d8 ff ff ff      	add64 r1, -0x28
    57a0: bf a2 00 00 00 00 00 00      	mov64 r2, r10
    57a8: 07 02 00 00 a0 ff ff ff      	add64 r2, -0x60
    57b0: b7 03 00 00 01 00 00 00      	mov64 r3, 0x1
    57b8: bf 84 00 00 00 00 00 00      	mov64 r4, r8
    57c0: 79 a5 40 ff 00 00 00 00      	ldxdw r5, [r10 - 0xc0]
    57c8: 85 10 00 00 ff ff ff ff      	call -0x1
    57d0: b7 01 00 00 1a 00 00 00      	mov64 r1, 0x1a
    57d8: 63 16 00 00 00 00 00 00      	stxw [r6 + 0x0], r1
    57e0: 95 00 00 00 00 00 00 00      	exit
    57e8: bf 45 00 00 00 00 00 00      	mov64 r5, r4
    57f0: bf 34 00 00 00 00 00 00      	mov64 r4, r3
    57f8: bf 16 00 00 00 00 00 00      	mov64 r6, r1
    5800: 79 21 10 00 00 00 00 00      	ldxdw r1, [r2 + 0x10]
    5808: 79 17 00 00 00 00 00 00      	ldxdw r7, [r1 + 0x0]
    5810: 07 07 00 00 08 00 00 00      	add64 r7, 0x8
    5818: 79 23 00 00 00 00 00 00      	ldxdw r3, [r2 + 0x0]
    5820: 79 38 00 00 00 00 00 00      	ldxdw r8, [r3 + 0x0]
    5828: 79 20 08 00 00 00 00 00      	ldxdw r0, [r2 + 0x8]
    5830: 79 09 00 00 00 00 00 00      	ldxdw r9, [r0 + 0x0]
    5838: 7b 7a a0 ff 00 00 00 00      	stxdw [r10 - 0x60], r7
    5840: 07 09 00 00 08 00 00 00      	add64 r9, 0x8
    5848: 7b 9a 90 ff 00 00 00 00      	stxdw [r10 - 0x70], r9
    5850: 07 08 00 00 08 00 00 00      	add64 r8, 0x8
    5858: 7b 8a 80 ff 00 00 00 00      	stxdw [r10 - 0x80], r8
    5860: 6a 0a a8 ff 00 01 00 00      	sth [r10 - 0x58], 0x100
    5868: 6a 0a 98 ff 01 00 00 00      	sth [r10 - 0x68], 0x1
    5870: 6a 0a 88 ff 01 00 00 00      	sth [r10 - 0x78], 0x1
    5878: 72 0a b7 ff 07 00 00 00      	stb [r10 - 0x49], 0x7
    5880: 79 22 18 00 00 00 00 00      	ldxdw r2, [r2 + 0x18]
    5888: 7b 2a b8 ff 00 00 00 00      	stxdw [r10 - 0x48], r2
    5890: bf a2 00 00 00 00 00 00      	mov64 r2, r10
    5898: 07 02 00 00 80 ff ff ff      	add64 r2, -0x80
    58a0: 7b 2a d8 ff 00 00 00 00      	stxdw [r10 - 0x28], r2
    58a8: bf a2 00 00 00 00 00 00      	mov64 r2, r10
    58b0: 07 02 00 00 b7 ff ff ff      	add64 r2, -0x49
    58b8: 7b 2a c8 ff 00 00 00 00      	stxdw [r10 - 0x38], r2
    58c0: 18 02 00 00 3e 67 00 00 00 00 00 00 00 00 00 00      	lddw r2, 0x673e
    58d0: 7b 2a c0 ff 00 00 00 00      	stxdw [r10 - 0x40], r2
    58d8: 7a 0a e0 ff 03 00 00 00      	stdw [r10 - 0x20], 0x3
    58e0: 7a 0a d0 ff 09 00 00 00      	stdw [r10 - 0x30], 0x9
    58e8: 7b 1a f8 ff 00 00 00 00      	stxdw [r10 - 0x8], r1
    58f0: 7b 0a f0 ff 00 00 00 00      	stxdw [r10 - 0x10], r0
    58f8: 7b 3a e8 ff 00 00 00 00      	stxdw [r10 - 0x18], r3
    5900: bf a1 00 00 00 00 00 00      	mov64 r1, r10
    5908: 07 01 00 00 78 ff ff ff      	add64 r1, -0x88
    5910: bf a2 00 00 00 00 00 00      	mov64 r2, r10
    5918: 07 02 00 00 c0 ff ff ff      	add64 r2, -0x40
    5920: bf a3 00 00 00 00 00 00      	mov64 r3, r10
    5928: 07 03 00 00 e8 ff ff ff      	add64 r3, -0x18
    5930: 85 10 00 00 2e fd ff ff      	call -0x2d2
    5938: 79 a1 78 ff 00 00 00 00      	ldxdw r1, [r10 - 0x88]
    5940: 7b 16 00 00 00 00 00 00      	stxdw [r6 + 0x0], r1
    5948: 95 00 00 00 00 00 00 00      	exit
    5950: bf 45 00 00 00 00 00 00      	mov64 r5, r4
    5958: bf 34 00 00 00 00 00 00      	mov64 r4, r3
    5960: bf 16 00 00 00 00 00 00      	mov64 r6, r1
    5968: 79 21 10 00 00 00 00 00      	ldxdw r1, [r2 + 0x10]
    5970: 79 17 00 00 00 00 00 00      	ldxdw r7, [r1 + 0x0]
    5978: 07 07 00 00 08 00 00 00      	add64 r7, 0x8
    5980: 79 23 00 00 00 00 00 00      	ldxdw r3, [r2 + 0x0]
    5988: 79 38 00 00 00 00 00 00      	ldxdw r8, [r3 + 0x0]
    5990: 79 20 08 00 00 00 00 00      	ldxdw r0, [r2 + 0x8]
    5998: 79 09 00 00 00 00 00 00      	ldxdw r9, [r0 + 0x0]
    59a0: 7b 7a a0 ff 00 00 00 00      	stxdw [r10 - 0x60], r7
    59a8: 07 09 00 00 08 00 00 00      	add64 r9, 0x8
    59b0: 7b 9a 90 ff 00 00 00 00      	stxdw [r10 - 0x70], r9
    59b8: 07 08 00 00 08 00 00 00      	add64 r8, 0x8
    59c0: 7b 8a 80 ff 00 00 00 00      	stxdw [r10 - 0x80], r8
    59c8: 6a 0a a8 ff 00 01 00 00      	sth [r10 - 0x58], 0x100
    59d0: 6a 0a 98 ff 01 00 00 00      	sth [r10 - 0x68], 0x1
    59d8: 6a 0a 88 ff 01 00 00 00      	sth [r10 - 0x78], 0x1
    59e0: 72 0a b7 ff 03 00 00 00      	stb [r10 - 0x49], 0x3
    59e8: 79 22 18 00 00 00 00 00      	ldxdw r2, [r2 + 0x18]
    59f0: 7b 2a b8 ff 00 00 00 00      	stxdw [r10 - 0x48], r2
    59f8: bf a2 00 00 00 00 00 00      	mov64 r2, r10
    5a00: 07 02 00 00 80 ff ff ff      	add64 r2, -0x80
    5a08: 7b 2a d8 ff 00 00 00 00      	stxdw [r10 - 0x28], r2
    5a10: bf a2 00 00 00 00 00 00      	mov64 r2, r10
    5a18: 07 02 00 00 b7 ff ff ff      	add64 r2, -0x49
    5a20: 7b 2a c8 ff 00 00 00 00      	stxdw [r10 - 0x38], r2
    5a28: 18 02 00 00 3e 67 00 00 00 00 00 00 00 00 00 00      	lddw r2, 0x673e
    5a38: 7b 2a c0 ff 00 00 00 00      	stxdw [r10 - 0x40], r2
    5a40: 7a 0a e0 ff 03 00 00 00      	stdw [r10 - 0x20], 0x3
    5a48: 7a 0a d0 ff 09 00 00 00      	stdw [r10 - 0x30], 0x9
    5a50: 7b 1a f8 ff 00 00 00 00      	stxdw [r10 - 0x8], r1
    5a58: 7b 0a f0 ff 00 00 00 00      	stxdw [r10 - 0x10], r0
    5a60: 7b 3a e8 ff 00 00 00 00      	stxdw [r10 - 0x18], r3
    5a68: bf a1 00 00 00 00 00 00      	mov64 r1, r10
    5a70: 07 01 00 00 78 ff ff ff      	add64 r1, -0x88
    5a78: bf a2 00 00 00 00 00 00      	mov64 r2, r10
    5a80: 07 02 00 00 c0 ff ff ff      	add64 r2, -0x40
    5a88: bf a3 00 00 00 00 00 00      	mov64 r3, r10
    5a90: 07 03 00 00 e8 ff ff ff      	add64 r3, -0x18
    5a98: 85 10 00 00 01 fd ff ff      	call -0x2ff
    5aa0: 79 a1 78 ff 00 00 00 00      	ldxdw r1, [r10 - 0x88]
    5aa8: 7b 16 00 00 00 00 00 00      	stxdw [r6 + 0x0], r1
    5ab0: 95 00 00 00 00 00 00 00      	exit
    5ab8: b7 09 00 00 0a 00 00 00      	mov64 r9, 0xa
    5ac0: 79 20 20 00 00 00 00 00      	ldxdw r0, [r2 + 0x20]
    5ac8: a5 00 14 00 02 00 00 00      	jlt r0, 0x2, +0x14 <custom_panic+0x1940>
    5ad0: 7b 0a 38 ff 00 00 00 00      	stxdw [r10 - 0xc8], r0
    5ad8: 7b 1a 60 ff 00 00 00 00      	stxdw [r10 - 0xa0], r1
    5ae0: 7b 4a 50 ff 00 00 00 00      	stxdw [r10 - 0xb0], r4
    5ae8: 7b 5a 40 ff 00 00 00 00      	stxdw [r10 - 0xc0], r5
    5af0: 7b 2a 48 ff 00 00 00 00      	stxdw [r10 - 0xb8], r2
    5af8: 79 28 18 00 00 00 00 00      	ldxdw r8, [r2 + 0x18]
    5b00: 79 82 00 00 00 00 00 00      	ldxdw r2, [r8 + 0x0]
    5b08: 7b 3a 58 ff 00 00 00 00      	stxdw [r10 - 0xa8], r3
    5b10: 79 31 00 00 00 00 00 00      	ldxdw r1, [r3 + 0x0]
    5b18: 79 16 00 00 00 00 00 00      	ldxdw r6, [r1 + 0x0]
    5b20: bf 67 00 00 00 00 00 00      	mov64 r7, r6
    5b28: 07 07 00 00 08 00 00 00      	add64 r7, 0x8
    5b30: bf 71 00 00 00 00 00 00      	mov64 r1, r7
    5b38: b7 03 00 00 20 00 00 00      	mov64 r3, 0x20
    5b40: 85 10 00 00 6d 01 00 00      	call 0x16d
    5b48: b7 09 00 00 01 00 00 00      	mov64 r9, 0x1
    5b50: 67 00 00 00 20 00 00 00      	lsh64 r0, 0x20
    5b58: 77 00 00 00 20 00 00 00      	rsh64 r0, 0x20
    5b60: 15 00 03 00 00 00 00 00      	jeq r0, 0x0, +0x3 <custom_panic+0x1950>
    5b68: 79 a1 60 ff 00 00 00 00      	ldxdw r1, [r10 - 0xa0]
    5b70: 63 91 00 00 00 00 00 00      	stxw [r1 + 0x0], r9
    5b78: 95 00 00 00 00 00 00 00      	exit
    5b80: 7b 8a 30 ff 00 00 00 00      	stxdw [r10 - 0xd0], r8
    5b88: 71 82 08 00 00 00 00 00      	ldxb r2, [r8 + 0x8]
    5b90: b7 01 00 00 ff ff ff ff      	mov64 r1, -0x1
    5b98: 55 02 01 00 00 00 00 00      	jne r2, 0x0, +0x1 <custom_panic+0x1978>
    5ba0: b7 01 00 00 88 ff ff ff      	mov64 r1, -0x78
    5ba8: 71 62 00 00 00 00 00 00      	ldxb r2, [r6 + 0x0]
    5bb0: 5f 21 00 00 00 00 00 00      	and64 r1, r2
    5bb8: 57 01 00 00 ff 00 00 00      	and64 r1, 0xff
    5bc0: b7 09 00 00 0b 00 00 00      	mov64 r9, 0xb
    5bc8: 55 01 f3 ff 00 00 00 00      	jne r1, 0x0, -0xd <custom_panic+0x1938>
    5bd0: 71 61 01 00 00 00 00 00      	ldxb r1, [r6 + 0x1]
    5bd8: 71 62 02 00 00 00 00 00      	ldxb r2, [r6 + 0x2]
    5be0: 71 64 03 00 00 00 00 00      	ldxb r4, [r6 + 0x3]
    5be8: 79 63 50 00 00 00 00 00      	ldxdw r3, [r6 + 0x50]
    5bf0: bf 65 00 00 00 00 00 00      	mov64 r5, r6
    5bf8: 07 05 00 00 28 00 00 00      	add64 r5, 0x28
    5c00: 7b 5a 88 ff 00 00 00 00      	stxdw [r10 - 0x78], r5
    5c08: bf 65 00 00 00 00 00 00      	mov64 r5, r6
    5c10: 07 05 00 00 58 00 00 00      	add64 r5, 0x58
    5c18: 7b 5a 80 ff 00 00 00 00      	stxdw [r10 - 0x80], r5
    5c20: 7b 3a 78 ff 00 00 00 00      	stxdw [r10 - 0x88], r3
    5c28: 07 06 00 00 48 00 00 00      	add64 r6, 0x48
    5c30: 7b 6a 70 ff 00 00 00 00      	stxdw [r10 - 0x90], r6
    5c38: 7b 7a 68 ff 00 00 00 00      	stxdw [r10 - 0x98], r7
    5c40: b7 09 00 00 01 00 00 00      	mov64 r9, 0x1
    5c48: b7 03 00 00 01 00 00 00      	mov64 r3, 0x1
    5c50: 55 04 01 00 00 00 00 00      	jne r4, 0x0, +0x1 <custom_panic+0x1a30>
    5c58: b7 03 00 00 00 00 00 00      	mov64 r3, 0x0
    5c60: 73 3a 9a ff 00 00 00 00      	stxb [r10 - 0x66], r3
    5c68: b7 04 00 00 01 00 00 00      	mov64 r4, 0x1
    5c70: 79 a3 58 ff 00 00 00 00      	ldxdw r3, [r10 - 0xa8]
    5c78: 79 a5 30 ff 00 00 00 00      	ldxdw r5, [r10 - 0xd0]
    5c80: 55 02 01 00 00 00 00 00      	jne r2, 0x0, +0x1 <custom_panic+0x1a60>
    5c88: b7 04 00 00 00 00 00 00      	mov64 r4, 0x0
    5c90: 73 4a 99 ff 00 00 00 00      	stxb [r10 - 0x67], r4
    5c98: b7 02 00 00 01 00 00 00      	mov64 r2, 0x1
    5ca0: 55 01 01 00 00 00 00 00      	jne r1, 0x0, +0x1 <custom_panic+0x1a80>
    5ca8: b7 02 00 00 00 00 00 00      	mov64 r2, 0x0
    5cb0: 73 2a 98 ff 00 00 00 00      	stxb [r10 - 0x68], r2
    5cb8: 7a 0a 90 ff 00 00 00 00      	stdw [r10 - 0x70], 0x0
    5cc0: 79 52 10 00 00 00 00 00      	ldxdw r2, [r5 + 0x10]
    5cc8: 79 31 08 00 00 00 00 00      	ldxdw r1, [r3 + 0x8]
    5cd0: 79 18 00 00 00 00 00 00      	ldxdw r8, [r1 + 0x0]
    5cd8: bf 87 00 00 00 00 00 00      	mov64 r7, r8
    5ce0: 07 07 00 00 08 00 00 00      	add64 r7, 0x8
    5ce8: bf 71 00 00 00 00 00 00      	mov64 r1, r7
    5cf0: b7 03 00 00 20 00 00 00      	mov64 r3, 0x20
    5cf8: bf 56 00 00 00 00 00 00      	mov64 r6, r5
    5d00: 85 10 00 00 35 01 00 00      	call 0x135
    5d08: 67 00 00 00 20 00 00 00      	lsh64 r0, 0x20
    5d10: 77 00 00 00 20 00 00 00      	rsh64 r0, 0x20
    5d18: 55 00 c9 ff 00 00 00 00      	jne r0, 0x0, -0x37 <custom_panic+0x1938>
    5d20: 71 62 18 00 00 00 00 00      	ldxb r2, [r6 + 0x18]
    5d28: b7 01 00 00 ff ff ff ff      	mov64 r1, -0x1
    5d30: 55 02 01 00 00 00 00 00      	jne r2, 0x0, +0x1 <custom_panic+0x1b10>
    5d38: b7 01 00 00 88 ff ff ff      	mov64 r1, -0x78
    5d40: 71 82 00 00 00 00 00 00      	ldxb r2, [r8 + 0x0]
    5d48: 5f 21 00 00 00 00 00 00      	and64 r1, r2
    5d50: 57 01 00 00 ff 00 00 00      	and64 r1, 0xff
    5d58: b7 09 00 00 0b 00 00 00      	mov64 r9, 0xb
    5d60: 55 01 c0 ff 00 00 00 00      	jne r1, 0x0, -0x40 <custom_panic+0x1938>
    5d68: 71 83 01 00 00 00 00 00      	ldxb r3, [r8 + 0x1]
    5d70: b7 02 00 00 01 00 00 00      	mov64 r2, 0x1
    5d78: b7 01 00 00 01 00 00 00      	mov64 r1, 0x1
    5d80: 55 03 01 00 00 00 00 00      	jne r3, 0x0, +0x1 <custom_panic+0x1b60>
    5d88: b7 01 00 00 00 00 00 00      	mov64 r1, 0x0
    5d90: 71 86 02 00 00 00 00 00      	ldxb r6, [r8 + 0x2]
    5d98: b7 00 00 00 01 00 00 00      	mov64 r0, 0x1
    5da0: 79 a5 40 ff 00 00 00 00      	ldxdw r5, [r10 - 0xc0]
    5da8: 79 a4 50 ff 00 00 00 00      	ldxdw r4, [r10 - 0xb0]
    5db0: 79 a3 48 ff 00 00 00 00      	ldxdw r3, [r10 - 0xb8]
    5db8: 55 06 01 00 00 00 00 00      	jne r6, 0x0, +0x1 <custom_panic+0x1b98>
    5dc0: b7 00 00 00 00 00 00 00      	mov64 r0, 0x0
    5dc8: 71 86 03 00 00 00 00 00      	ldxb r6, [r8 + 0x3]
    5dd0: 55 06 01 00 00 00 00 00      	jne r6, 0x0, +0x1 <custom_panic+0x1bb0>
    5dd8: b7 02 00 00 00 00 00 00      	mov64 r2, 0x0
    5de0: 79 86 50 00 00 00 00 00      	ldxdw r6, [r8 + 0x50]
    5de8: bf 89 00 00 00 00 00 00      	mov64 r9, r8
    5df0: 07 09 00 00 28 00 00 00      	add64 r9, 0x28
    5df8: 7b 9a c0 ff 00 00 00 00      	stxdw [r10 - 0x40], r9
    5e00: bf 89 00 00 00 00 00 00      	mov64 r9, r8
    5e08: 07 09 00 00 58 00 00 00      	add64 r9, 0x58
    5e10: 7b 9a b8 ff 00 00 00 00      	stxdw [r10 - 0x48], r9
    5e18: 7b 6a b0 ff 00 00 00 00      	stxdw [r10 - 0x50], r6
    5e20: 07 08 00 00 48 00 00 00      	add64 r8, 0x48
    5e28: 7b 8a a8 ff 00 00 00 00      	stxdw [r10 - 0x58], r8
    5e30: 7b 7a a0 ff 00 00 00 00      	stxdw [r10 - 0x60], r7
    5e38: 73 2a d2 ff 00 00 00 00      	stxb [r10 - 0x2e], r2
    5e40: 73 0a d1 ff 00 00 00 00      	stxb [r10 - 0x2f], r0
    5e48: 73 1a d0 ff 00 00 00 00      	stxb [r10 - 0x30], r1
    5e50: 7a 0a c8 ff 00 00 00 00      	stdw [r10 - 0x38], 0x0
    5e58: 79 31 00 00 00 00 00 00      	ldxdw r1, [r3 + 0x0]
    5e60: 79 32 08 00 00 00 00 00      	ldxdw r2, [r3 + 0x8]
    5e68: 79 33 10 00 00 00 00 00      	ldxdw r3, [r3 + 0x10]
    5e70: 7b 3a f8 ff 00 00 00 00      	stxdw [r10 - 0x8], r3
    5e78: 7b 2a f0 ff 00 00 00 00      	stxdw [r10 - 0x10], r2
    5e80: 79 a2 38 ff 00 00 00 00      	ldxdw r2, [r10 - 0xc8]
    5e88: 7b 2a e8 ff 00 00 00 00      	stxdw [r10 - 0x18], r2
    5e90: 79 a2 30 ff 00 00 00 00      	ldxdw r2, [r10 - 0xd0]
    5e98: 7b 2a e0 ff 00 00 00 00      	stxdw [r10 - 0x20], r2
    5ea0: 7b 1a d8 ff 00 00 00 00      	stxdw [r10 - 0x28], r1
    5ea8: bf a1 00 00 00 00 00 00      	mov64 r1, r10
    5eb0: 07 01 00 00 d8 ff ff ff      	add64 r1, -0x28
    5eb8: bf a2 00 00 00 00 00 00      	mov64 r2, r10
    5ec0: 07 02 00 00 68 ff ff ff      	add64 r2, -0x98
    5ec8: b7 03 00 00 02 00 00 00      	mov64 r3, 0x2
    5ed0: 85 10 00 00 ff ff ff ff      	call -0x1
    5ed8: b7 09 00 00 1a 00 00 00      	mov64 r9, 0x1a
    5ee0: 05 00 90 ff 00 00 00 00      	ja -0x70 <custom_panic+0x1938>
    5ee8: bf 45 00 00 00 00 00 00      	mov64 r5, r4
    5ef0: bf 34 00 00 00 00 00 00      	mov64 r4, r3
    5ef8: bf 16 00 00 00 00 00 00      	mov64 r6, r1
    5f00: 79 21 08 00 00 00 00 00      	ldxdw r1, [r2 + 0x8]
    5f08: 79 10 00 00 00 00 00 00      	ldxdw r0, [r1 + 0x0]
    5f10: 07 00 00 00 08 00 00 00      	add64 r0, 0x8
    5f18: 79 23 00 00 00 00 00 00      	ldxdw r3, [r2 + 0x0]
    5f20: 79 37 00 00 00 00 00 00      	ldxdw r7, [r3 + 0x0]
    5f28: 7b 0a 80 ff 00 00 00 00      	stxdw [r10 - 0x80], r0
    5f30: 07 07 00 00 08 00 00 00      	add64 r7, 0x8
    5f38: 7b 7a 70 ff 00 00 00 00      	stxdw [r10 - 0x90], r7
    5f40: 6a 0a 88 ff 01 01 00 00      	sth [r10 - 0x78], 0x101
    5f48: 6a 0a 78 ff 01 01 00 00      	sth [r10 - 0x88], 0x101
    5f50: 62 0a 94 ff 00 00 00 00      	stw [r10 - 0x6c], 0x0
    5f58: 79 20 18 00 00 00 00 00      	ldxdw r0, [r2 + 0x18]
    5f60: 7b 0a 98 ff 00 00 00 00      	stxdw [r10 - 0x68], r0
    5f68: 79 20 20 00 00 00 00 00      	ldxdw r0, [r2 + 0x20]
    5f70: 7b 0a a0 ff 00 00 00 00      	stxdw [r10 - 0x60], r0
    5f78: 79 22 10 00 00 00 00 00      	ldxdw r2, [r2 + 0x10]
    5f80: 79 20 18 00 00 00 00 00      	ldxdw r0, [r2 + 0x18]
    5f88: 7b 0a c0 ff 00 00 00 00      	stxdw [r10 - 0x40], r0
    5f90: 79 20 10 00 00 00 00 00      	ldxdw r0, [r2 + 0x10]
    5f98: 7b 0a b8 ff 00 00 00 00      	stxdw [r10 - 0x48], r0
    5fa0: 79 20 08 00 00 00 00 00      	ldxdw r0, [r2 + 0x8]
    5fa8: 7b 0a b0 ff 00 00 00 00      	stxdw [r10 - 0x50], r0
    5fb0: 79 22 00 00 00 00 00 00      	ldxdw r2, [r2 + 0x0]
    5fb8: 7b 2a a8 ff 00 00 00 00      	stxdw [r10 - 0x58], r2
    5fc0: bf a2 00 00 00 00 00 00      	mov64 r2, r10
    5fc8: 07 02 00 00 70 ff ff ff      	add64 r2, -0x90
    5fd0: 7b 2a e0 ff 00 00 00 00      	stxdw [r10 - 0x20], r2
    5fd8: bf a2 00 00 00 00 00 00      	mov64 r2, r10
    5fe0: 07 02 00 00 94 ff ff ff      	add64 r2, -0x6c
    5fe8: 7b 2a d0 ff 00 00 00 00      	stxdw [r10 - 0x30], r2
    5ff0: 18 02 00 00 5e 67 00 00 00 00 00 00 00 00 00 00      	lddw r2, 0x675e
    6000: 7b 2a c8 ff 00 00 00 00      	stxdw [r10 - 0x38], r2
    6008: 7a 0a e8 ff 02 00 00 00      	stdw [r10 - 0x18], 0x2
    6010: 7a 0a d8 ff 34 00 00 00      	stdw [r10 - 0x28], 0x34
    6018: 7b 1a f8 ff 00 00 00 00      	stxdw [r10 - 0x8], r1
    6020: 7b 3a f0 ff 00 00 00 00      	stxdw [r10 - 0x10], r3
    6028: bf a1 00 00 00 00 00 00      	mov64 r1, r10
    6030: 07 01 00 00 68 ff ff ff      	add64 r1, -0x98
    6038: bf a2 00 00 00 00 00 00      	mov64 r2, r10
    6040: 07 02 00 00 c8 ff ff ff      	add64 r2, -0x38
    6048: bf a3 00 00 00 00 00 00      	mov64 r3, r10
    6050: 07 03 00 00 f0 ff ff ff      	add64 r3, -0x10
    6058: 85 10 00 00 4b ff ff ff      	call -0xb5
    6060: 79 a1 68 ff 00 00 00 00      	ldxdw r1, [r10 - 0x98]
    6068: 7b 16 00 00 00 00 00 00      	stxdw [r6 + 0x0], r1
    6070: 95 00 00 00 00 00 00 00      	exit
    6078: 79 22 00 00 00 00 00 00      	ldxdw r2, [r2 + 0x0]
    6080: 71 23 00 00 00 00 00 00      	ldxb r3, [r2 + 0x0]
    6088: bf 34 00 00 00 00 00 00      	mov64 r4, r3
    6090: 57 04 00 00 08 00 00 00      	and64 r4, 0x8
    6098: 55 04 03 00 00 00 00 00      	jne r4, 0x0, +0x3 <custom_panic+0x1e88>
    60a0: bf 34 00 00 00 00 00 00      	mov64 r4, r3
    60a8: 57 04 00 00 07 00 00 00      	and64 r4, 0x7
    60b0: 55 04 03 00 07 00 00 00      	jne r4, 0x7, +0x3 <custom_panic+0x1ea0>
    60b8: 62 01 08 00 0b 00 00 00      	stw [r1 + 0x8], 0xb
    60c0: b7 02 00 00 00 00 00 00      	mov64 r2, 0x0
    60c8: 05 00 07 00 00 00 00 00      	ja +0x7 <custom_panic+0x1ed8>
    60d0: 07 03 00 00 01 00 00 00      	add64 r3, 0x1
    60d8: 73 32 00 00 00 00 00 00      	stxb [r2 + 0x0], r3
    60e0: 79 23 50 00 00 00 00 00      	ldxdw r3, [r2 + 0x50]
    60e8: 7b 31 08 00 00 00 00 00      	stxdw [r1 + 0x8], r3
    60f0: 7b 21 10 00 00 00 00 00      	stxdw [r1 + 0x10], r2
    60f8: 72 01 18 00 00 00 00 00      	stb [r1 + 0x18], 0x0
    6100: 07 02 00 00 58 00 00 00      	add64 r2, 0x58
    6108: 7b 21 00 00 00 00 00 00      	stxdw [r1 + 0x0], r2
    6110: 95 00 00 00 00 00 00 00      	exit
    6118: 18 03 00 00 00 00 00 00 00 00 00 00 ff ff ff ff      	lddw r3, -0x100000000
    6128: bf 24 00 00 00 00 00 00      	mov64 r4, r2
    6130: 0f 34 00 00 00 00 00 00      	add64 r4, r3
    6138: bf 43 00 00 00 00 00 00      	mov64 r3, r4
    6140: 77 03 00 00 20 00 00 00      	rsh64 r3, 0x20
    6148: 67 04 00 00 20 00 00 00      	lsh64 r4, 0x20
    6150: 4f 34 00 00 00 00 00 00      	or64 r4, r3
    6158: b7 03 00 00 00 00 00 00      	mov64 r3, 0x0
    6160: 65 04 09 00 0c 00 00 00      	jsgt r4, 0xc, +0x9 <custom_panic+0x1f80>
    6168: 65 04 10 00 05 00 00 00      	jsgt r4, 0x5, +0x10 <custom_panic+0x1fc0>
    6170: 65 04 29 00 02 00 00 00      	jsgt r4, 0x2, +0x29 <custom_panic+0x2090>
    6178: b7 05 00 00 00 00 00 00      	mov64 r5, 0x0
    6180: 15 04 5b 00 00 00 00 00      	jeq r4, 0x0, +0x5b <custom_panic+0x2230>
    6188: 15 04 53 00 01 00 00 00      	jeq r4, 0x1, +0x53 <custom_panic+0x21f8>
    6190: 15 04 01 00 02 00 00 00      	jeq r4, 0x2, +0x1 <custom_panic+0x1f70>
    6198: 05 00 37 00 00 00 00 00      	ja +0x37 <custom_panic+0x2128>
    61a0: b7 03 00 00 02 00 00 00      	mov64 r3, 0x2
    61a8: 05 00 56 00 00 00 00 00      	ja +0x56 <custom_panic+0x2230>
    61b0: 65 04 0e 00 12 00 00 00      	jsgt r4, 0x12, +0xe <custom_panic+0x1ff8>
    61b8: 65 04 26 00 0f 00 00 00      	jsgt r4, 0xf, +0x26 <custom_panic+0x20c0>
    61c0: 15 04 42 00 0d 00 00 00      	jeq r4, 0xd, +0x42 <custom_panic+0x21a8>
    61c8: 15 04 4d 00 0e 00 00 00      	jeq r4, 0xe, +0x4d <custom_panic+0x2208>
    61d0: 15 04 01 00 0f 00 00 00      	jeq r4, 0xf, +0x1 <custom_panic+0x1fb0>
    61d8: 05 00 2f 00 00 00 00 00      	ja +0x2f <custom_panic+0x2128>
    61e0: b7 03 00 00 0f 00 00 00      	mov64 r3, 0xf
    61e8: 05 00 4e 00 00 00 00 00      	ja +0x4e <custom_panic+0x2230>
    61f0: 65 04 0d 00 08 00 00 00      	jsgt r4, 0x8, +0xd <custom_panic+0x2030>
    61f8: 15 04 37 00 06 00 00 00      	jeq r4, 0x6, +0x37 <custom_panic+0x2188>
    6200: 15 04 40 00 07 00 00 00      	jeq r4, 0x7, +0x40 <custom_panic+0x21d8>
    6208: 15 04 01 00 08 00 00 00      	jeq r4, 0x8, +0x1 <custom_panic+0x1fe8>
    6210: 05 00 28 00 00 00 00 00      	ja +0x28 <custom_panic+0x2128>
    6218: b7 03 00 00 08 00 00 00      	mov64 r3, 0x8
    6220: 05 00 47 00 00 00 00 00      	ja +0x47 <custom_panic+0x2230>
    6228: 65 04 0c 00 15 00 00 00      	jsgt r4, 0x15, +0xc <custom_panic+0x2060>
    6230: 15 04 32 00 13 00 00 00      	jeq r4, 0x13, +0x32 <custom_panic+0x2198>
    6238: 15 04 3b 00 14 00 00 00      	jeq r4, 0x14, +0x3b <custom_panic+0x21e8>
    6240: 15 04 01 00 15 00 00 00      	jeq r4, 0x15, +0x1 <custom_panic+0x2020>
    6248: 05 00 21 00 00 00 00 00      	ja +0x21 <custom_panic+0x2128>
    6250: b7 03 00 00 15 00 00 00      	mov64 r3, 0x15
    6258: 05 00 40 00 00 00 00 00      	ja +0x40 <custom_panic+0x2230>
    6260: 65 04 17 00 0a 00 00 00      	jsgt r4, 0xa, +0x17 <custom_panic+0x20f0>
    6268: 15 04 1f 00 09 00 00 00      	jeq r4, 0x9, +0x1f <custom_panic+0x2138>
    6270: 15 04 01 00 0a 00 00 00      	jeq r4, 0xa, +0x1 <custom_panic+0x2050>
    6278: 05 00 1b 00 00 00 00 00      	ja +0x1b <custom_panic+0x2128>
    6280: b7 03 00 00 0a 00 00 00      	mov64 r3, 0xa
    6288: 05 00 3a 00 00 00 00 00      	ja +0x3a <custom_panic+0x2230>
    6290: 65 04 16 00 17 00 00 00      	jsgt r4, 0x17, +0x16 <custom_panic+0x2118>
    6298: 15 04 1b 00 16 00 00 00      	jeq r4, 0x16, +0x1b <custom_panic+0x2148>
    62a0: 15 04 01 00 17 00 00 00      	jeq r4, 0x17, +0x1 <custom_panic+0x2080>
    62a8: 05 00 15 00 00 00 00 00      	ja +0x15 <custom_panic+0x2128>
    62b0: b7 03 00 00 17 00 00 00      	mov64 r3, 0x17
    62b8: 05 00 34 00 00 00 00 00      	ja +0x34 <custom_panic+0x2230>
    62c0: 15 04 24 00 03 00 00 00      	jeq r4, 0x3, +0x24 <custom_panic+0x21b8>
    62c8: 15 04 2f 00 04 00 00 00      	jeq r4, 0x4, +0x2f <custom_panic+0x2218>
    62d0: 15 04 01 00 05 00 00 00      	jeq r4, 0x5, +0x1 <custom_panic+0x20b0>
    62d8: 05 00 0f 00 00 00 00 00      	ja +0xf <custom_panic+0x2128>
    62e0: b7 03 00 00 05 00 00 00      	mov64 r3, 0x5
    62e8: 05 00 2e 00 00 00 00 00      	ja +0x2e <custom_panic+0x2230>
    62f0: 15 04 20 00 10 00 00 00      	jeq r4, 0x10, +0x20 <custom_panic+0x21c8>
    62f8: 15 04 2b 00 11 00 00 00      	jeq r4, 0x11, +0x2b <custom_panic+0x2228>
    6300: 15 04 01 00 12 00 00 00      	jeq r4, 0x12, +0x1 <custom_panic+0x20e0>
    6308: 05 00 09 00 00 00 00 00      	ja +0x9 <custom_panic+0x2128>
    6310: b7 03 00 00 12 00 00 00      	mov64 r3, 0x12
    6318: 05 00 28 00 00 00 00 00      	ja +0x28 <custom_panic+0x2230>
    6320: 15 04 0c 00 0b 00 00 00      	jeq r4, 0xb, +0xc <custom_panic+0x2158>
    6328: 15 04 01 00 0c 00 00 00      	jeq r4, 0xc, +0x1 <custom_panic+0x2108>
    6330: 05 00 04 00 00 00 00 00      	ja +0x4 <custom_panic+0x2128>
    6338: b7 03 00 00 0c 00 00 00      	mov64 r3, 0xc
    6340: 05 00 23 00 00 00 00 00      	ja +0x23 <custom_panic+0x2230>
    6348: 15 04 09 00 18 00 00 00      	jeq r4, 0x18, +0x9 <custom_panic+0x2168>
    6350: 15 04 0a 00 19 00 00 00      	jeq r4, 0x19, +0xa <custom_panic+0x2178>
    6358: bf 25 00 00 00 00 00 00      	mov64 r5, r2
    6360: 05 00 1f 00 00 00 00 00      	ja +0x1f <custom_panic+0x2230>
    6368: b7 03 00 00 09 00 00 00      	mov64 r3, 0x9
    6370: 05 00 1d 00 00 00 00 00      	ja +0x1d <custom_panic+0x2230>
    6378: b7 03 00 00 16 00 00 00      	mov64 r3, 0x16
    6380: 05 00 1b 00 00 00 00 00      	ja +0x1b <custom_panic+0x2230>
    6388: b7 03 00 00 0b 00 00 00      	mov64 r3, 0xb
    6390: 05 00 19 00 00 00 00 00      	ja +0x19 <custom_panic+0x2230>
    6398: b7 03 00 00 18 00 00 00      	mov64 r3, 0x18
    63a0: 05 00 17 00 00 00 00 00      	ja +0x17 <custom_panic+0x2230>
    63a8: b7 03 00 00 19 00 00 00      	mov64 r3, 0x19
    63b0: 05 00 15 00 00 00 00 00      	ja +0x15 <custom_panic+0x2230>
    63b8: b7 03 00 00 06 00 00 00      	mov64 r3, 0x6
    63c0: 05 00 13 00 00 00 00 00      	ja +0x13 <custom_panic+0x2230>
    63c8: b7 03 00 00 13 00 00 00      	mov64 r3, 0x13
    63d0: 05 00 11 00 00 00 00 00      	ja +0x11 <custom_panic+0x2230>
    63d8: b7 03 00 00 0d 00 00 00      	mov64 r3, 0xd
    63e0: 05 00 0f 00 00 00 00 00      	ja +0xf <custom_panic+0x2230>
    63e8: b7 03 00 00 03 00 00 00      	mov64 r3, 0x3
    63f0: 05 00 0d 00 00 00 00 00      	ja +0xd <custom_panic+0x2230>
    63f8: b7 03 00 00 10 00 00 00      	mov64 r3, 0x10
    6400: 05 00 0b 00 00 00 00 00      	ja +0xb <custom_panic+0x2230>
    6408: b7 03 00 00 07 00 00 00      	mov64 r3, 0x7
    6410: 05 00 09 00 00 00 00 00      	ja +0x9 <custom_panic+0x2230>
    6418: b7 03 00 00 14 00 00 00      	mov64 r3, 0x14
    6420: 05 00 07 00 00 00 00 00      	ja +0x7 <custom_panic+0x2230>
    6428: b7 03 00 00 01 00 00 00      	mov64 r3, 0x1
    6430: 05 00 05 00 00 00 00 00      	ja +0x5 <custom_panic+0x2230>
    6438: b7 03 00 00 0e 00 00 00      	mov64 r3, 0xe
    6440: 05 00 03 00 00 00 00 00      	ja +0x3 <custom_panic+0x2230>
    6448: b7 03 00 00 04 00 00 00      	mov64 r3, 0x4
    6450: 05 00 01 00 00 00 00 00      	ja +0x1 <custom_panic+0x2230>
    6458: b7 03 00 00 11 00 00 00      	mov64 r3, 0x11
    6460: 63 51 04 00 00 00 00 00      	stxw [r1 + 0x4], r5
    6468: 63 31 00 00 00 00 00 00      	stxw [r1 + 0x0], r3
    6470: 95 00 00 00 00 00 00 00      	exit
    6478: bf 16 00 00 00 00 00 00      	mov64 r6, r1
    6480: bf a1 00 00 00 00 00 00      	mov64 r1, r10
    6488: 07 01 00 00 d8 ff ff ff      	add64 r1, -0x28
    6490: 85 10 00 00 ff ff ff ff      	call -0x1
    6498: 55 00 0c 00 00 00 00 00      	jne r0, 0x0, +0xc <custom_panic+0x22d0>
    64a0: 79 a1 f8 ff 00 00 00 00      	ldxdw r1, [r10 - 0x8]
    64a8: 7b 16 28 00 00 00 00 00      	stxdw [r6 + 0x28], r1
    64b0: 79 a1 f0 ff 00 00 00 00      	ldxdw r1, [r10 - 0x10]
    64b8: 7b 16 20 00 00 00 00 00      	stxdw [r6 + 0x20], r1
    64c0: 79 a1 e8 ff 00 00 00 00      	ldxdw r1, [r10 - 0x18]
    64c8: 7b 16 18 00 00 00 00 00      	stxdw [r6 + 0x18], r1
    64d0: 79 a1 e0 ff 00 00 00 00      	ldxdw r1, [r10 - 0x20]
    64d8: 7b 16 10 00 00 00 00 00      	stxdw [r6 + 0x10], r1
    64e0: 79 a1 d8 ff 00 00 00 00      	ldxdw r1, [r10 - 0x28]
    64e8: 7b 16 08 00 00 00 00 00      	stxdw [r6 + 0x8], r1
    64f0: b7 01 00 00 00 00 00 00      	mov64 r1, 0x0
    64f8: 05 00 09 00 00 00 00 00      	ja +0x9 <custom_panic+0x2318>
    6500: bf a1 00 00 00 00 00 00      	mov64 r1, r10
    6508: 07 01 00 00 d0 ff ff ff      	add64 r1, -0x30
    6510: bf 02 00 00 00 00 00 00      	mov64 r2, r0
    6518: 85 10 00 00 7f ff ff ff      	call -0x81
    6520: 61 a1 d0 ff 00 00 00 00      	ldxw r1, [r10 - 0x30]
    6528: 61 a2 d4 ff 00 00 00 00      	ldxw r2, [r10 - 0x2c]
    6530: 63 26 08 00 00 00 00 00      	stxw [r6 + 0x8], r2
    6538: 63 16 04 00 00 00 00 00      	stxw [r6 + 0x4], r1
    6540: b7 01 00 00 01 00 00 00      	mov64 r1, 0x1
    6548: 63 16 00 00 00 00 00 00      	stxw [r6 + 0x0], r1
    6550: 95 00 00 00 00 00 00 00      	exit
    6558: 7b 2a f0 ff 00 00 00 00      	stxdw [r10 - 0x10], r2
    6560: 7b 1a e8 ff 00 00 00 00      	stxdw [r10 - 0x18], r1
    6568: 6a 0a f8 ff 01 00 00 00      	sth [r10 - 0x8], 0x1
    6570: bf a1 00 00 00 00 00 00      	mov64 r1, r10
    6578: 07 01 00 00 e8 ff ff ff      	add64 r1, -0x18
    6580: 85 10 00 00 9e fb ff ff      	call -0x462
    6588: bf 12 00 00 00 00 00 00      	mov64 r2, r1
    6590: 18 01 00 00 78 69 00 00 00 00 00 00 00 00 00 00      	lddw r1, 0x6978
    65a0: 7b 1a d0 ff 00 00 00 00      	stxdw [r10 - 0x30], r1
    65a8: 7a 0a f0 ff 00 00 00 00      	stdw [r10 - 0x10], 0x0
    65b0: 7a 0a d8 ff 01 00 00 00      	stdw [r10 - 0x28], 0x1
    65b8: 7a 0a e8 ff 00 00 00 00      	stdw [r10 - 0x18], 0x0
    65c0: 7a 0a e0 ff 08 00 00 00      	stdw [r10 - 0x20], 0x8
    65c8: bf a1 00 00 00 00 00 00      	mov64 r1, r10
    65d0: 07 01 00 00 d0 ff ff ff      	add64 r1, -0x30
    65d8: 85 10 00 00 ef ff ff ff      	call -0x11
    65e0: bf 12 00 00 00 00 00 00      	mov64 r2, r1
    65e8: 18 01 00 00 88 69 00 00 00 00 00 00 00 00 00 00      	lddw r1, 0x6988
    65f8: 7b 1a d0 ff 00 00 00 00      	stxdw [r10 - 0x30], r1
    6600: 7a 0a f0 ff 00 00 00 00      	stdw [r10 - 0x10], 0x0
    6608: 7a 0a d8 ff 01 00 00 00      	stdw [r10 - 0x28], 0x1
    6610: 7a 0a e8 ff 00 00 00 00      	stdw [r10 - 0x18], 0x0
    6618: 7a 0a e0 ff 08 00 00 00      	stdw [r10 - 0x20], 0x8
    6620: bf a1 00 00 00 00 00 00      	mov64 r1, r10
    6628: 07 01 00 00 d0 ff ff ff      	add64 r1, -0x30
    6630: 85 10 00 00 e4 ff ff ff      	call -0x1c
    6638: bf 12 00 00 00 00 00 00      	mov64 r2, r1
    6640: 18 01 00 00 98 69 00 00 00 00 00 00 00 00 00 00      	lddw r1, 0x6998
    6650: 7b 1a d0 ff 00 00 00 00      	stxdw [r10 - 0x30], r1
    6658: 7a 0a f0 ff 00 00 00 00      	stdw [r10 - 0x10], 0x0
    6660: 7a 0a d8 ff 01 00 00 00      	stdw [r10 - 0x28], 0x1
    6668: 7a 0a e8 ff 00 00 00 00      	stdw [r10 - 0x18], 0x0
    6670: 7a 0a e0 ff 08 00 00 00      	stdw [r10 - 0x20], 0x8
    6678: bf a1 00 00 00 00 00 00      	mov64 r1, r10
    6680: 07 01 00 00 d0 ff ff ff      	add64 r1, -0x30
    6688: 85 10 00 00 d9 ff ff ff      	call -0x27
    6690: bf 16 00 00 00 00 00 00      	mov64 r6, r1
    6698: 85 10 00 00 ff ff ff ff      	call -0x1
    66a0: bf 60 00 00 00 00 00 00      	mov64 r0, r6
    66a8: 95 00 00 00 00 00 00 00      	exit
    66b0: 62 0a fc ff 00 00 00 00      	stw [r10 - 0x4], 0x0
    66b8: bf a4 00 00 00 00 00 00      	mov64 r4, r10
    66c0: 07 04 00 00 fc ff ff ff      	add64 r4, -0x4
    66c8: 85 10 00 00 ff ff ff ff      	call -0x1
    66d0: 61 a0 fc ff 00 00 00 00      	ldxw r0, [r10 - 0x4]
    66d8: 67 00 00 00 20 00 00 00      	lsh64 r0, 0x20
    66e0: c7 00 00 00 20 00 00 00      	arsh64 r0, 0x20
    66e8: 95 00 00 00 00 00 00 00      	exit
